
./build/disasm:     file format elf64-x86-64


Disassembly of section .init:

0000000000005000 <_init>:
    5000:	f3 0f 1e fa          	endbr64
    5004:	48 83 ec 08          	sub    $0x8,%rsp
    5008:	48 8b 05 d9 8f 04 00 	mov    0x48fd9(%rip),%rax        # 4dfe8 <__gmon_start__@Base>
    500f:	48 85 c0             	test   %rax,%rax
    5012:	74 02                	je     5016 <_init+0x16>
    5014:	ff d0                	call   *%rax
    5016:	48 83 c4 08          	add    $0x8,%rsp
    501a:	c3                   	ret

Disassembly of section .plt:

0000000000005020 <.plt>:
    5020:	ff 35 0a 8c 04 00    	push   0x48c0a(%rip)        # 4dc30 <_GLOBAL_OFFSET_TABLE_+0x8>
    5026:	ff 25 0c 8c 04 00    	jmp    *0x48c0c(%rip)        # 4dc38 <_GLOBAL_OFFSET_TABLE_+0x10>
    502c:	0f 1f 40 00          	nopl   0x0(%rax)
    5030:	f3 0f 1e fa          	endbr64
    5034:	68 00 00 00 00       	push   $0x0
    5039:	e9 e2 ff ff ff       	jmp    5020 <_init+0x20>
    503e:	66 90                	xchg   %ax,%ax
    5040:	f3 0f 1e fa          	endbr64
    5044:	68 01 00 00 00       	push   $0x1
    5049:	e9 d2 ff ff ff       	jmp    5020 <_init+0x20>
    504e:	66 90                	xchg   %ax,%ax
    5050:	f3 0f 1e fa          	endbr64
    5054:	68 02 00 00 00       	push   $0x2
    5059:	e9 c2 ff ff ff       	jmp    5020 <_init+0x20>
    505e:	66 90                	xchg   %ax,%ax
    5060:	f3 0f 1e fa          	endbr64
    5064:	68 03 00 00 00       	push   $0x3
    5069:	e9 b2 ff ff ff       	jmp    5020 <_init+0x20>
    506e:	66 90                	xchg   %ax,%ax
    5070:	f3 0f 1e fa          	endbr64
    5074:	68 04 00 00 00       	push   $0x4
    5079:	e9 a2 ff ff ff       	jmp    5020 <_init+0x20>
    507e:	66 90                	xchg   %ax,%ax
    5080:	f3 0f 1e fa          	endbr64
    5084:	68 05 00 00 00       	push   $0x5
    5089:	e9 92 ff ff ff       	jmp    5020 <_init+0x20>
    508e:	66 90                	xchg   %ax,%ax
    5090:	f3 0f 1e fa          	endbr64
    5094:	68 06 00 00 00       	push   $0x6
    5099:	e9 82 ff ff ff       	jmp    5020 <_init+0x20>
    509e:	66 90                	xchg   %ax,%ax
    50a0:	f3 0f 1e fa          	endbr64
    50a4:	68 07 00 00 00       	push   $0x7
    50a9:	e9 72 ff ff ff       	jmp    5020 <_init+0x20>
    50ae:	66 90                	xchg   %ax,%ax
    50b0:	f3 0f 1e fa          	endbr64
    50b4:	68 08 00 00 00       	push   $0x8
    50b9:	e9 62 ff ff ff       	jmp    5020 <_init+0x20>
    50be:	66 90                	xchg   %ax,%ax
    50c0:	f3 0f 1e fa          	endbr64
    50c4:	68 09 00 00 00       	push   $0x9
    50c9:	e9 52 ff ff ff       	jmp    5020 <_init+0x20>
    50ce:	66 90                	xchg   %ax,%ax
    50d0:	f3 0f 1e fa          	endbr64
    50d4:	68 0a 00 00 00       	push   $0xa
    50d9:	e9 42 ff ff ff       	jmp    5020 <_init+0x20>
    50de:	66 90                	xchg   %ax,%ax
    50e0:	f3 0f 1e fa          	endbr64
    50e4:	68 0b 00 00 00       	push   $0xb
    50e9:	e9 32 ff ff ff       	jmp    5020 <_init+0x20>
    50ee:	66 90                	xchg   %ax,%ax
    50f0:	f3 0f 1e fa          	endbr64
    50f4:	68 0c 00 00 00       	push   $0xc
    50f9:	e9 22 ff ff ff       	jmp    5020 <_init+0x20>
    50fe:	66 90                	xchg   %ax,%ax
    5100:	f3 0f 1e fa          	endbr64
    5104:	68 0d 00 00 00       	push   $0xd
    5109:	e9 12 ff ff ff       	jmp    5020 <_init+0x20>
    510e:	66 90                	xchg   %ax,%ax
    5110:	f3 0f 1e fa          	endbr64
    5114:	68 0e 00 00 00       	push   $0xe
    5119:	e9 02 ff ff ff       	jmp    5020 <_init+0x20>
    511e:	66 90                	xchg   %ax,%ax
    5120:	f3 0f 1e fa          	endbr64
    5124:	68 0f 00 00 00       	push   $0xf
    5129:	e9 f2 fe ff ff       	jmp    5020 <_init+0x20>
    512e:	66 90                	xchg   %ax,%ax
    5130:	f3 0f 1e fa          	endbr64
    5134:	68 10 00 00 00       	push   $0x10
    5139:	e9 e2 fe ff ff       	jmp    5020 <_init+0x20>
    513e:	66 90                	xchg   %ax,%ax
    5140:	f3 0f 1e fa          	endbr64
    5144:	68 11 00 00 00       	push   $0x11
    5149:	e9 d2 fe ff ff       	jmp    5020 <_init+0x20>
    514e:	66 90                	xchg   %ax,%ax
    5150:	f3 0f 1e fa          	endbr64
    5154:	68 12 00 00 00       	push   $0x12
    5159:	e9 c2 fe ff ff       	jmp    5020 <_init+0x20>
    515e:	66 90                	xchg   %ax,%ax
    5160:	f3 0f 1e fa          	endbr64
    5164:	68 13 00 00 00       	push   $0x13
    5169:	e9 b2 fe ff ff       	jmp    5020 <_init+0x20>
    516e:	66 90                	xchg   %ax,%ax
    5170:	f3 0f 1e fa          	endbr64
    5174:	68 14 00 00 00       	push   $0x14
    5179:	e9 a2 fe ff ff       	jmp    5020 <_init+0x20>
    517e:	66 90                	xchg   %ax,%ax
    5180:	f3 0f 1e fa          	endbr64
    5184:	68 15 00 00 00       	push   $0x15
    5189:	e9 92 fe ff ff       	jmp    5020 <_init+0x20>
    518e:	66 90                	xchg   %ax,%ax
    5190:	f3 0f 1e fa          	endbr64
    5194:	68 16 00 00 00       	push   $0x16
    5199:	e9 82 fe ff ff       	jmp    5020 <_init+0x20>
    519e:	66 90                	xchg   %ax,%ax
    51a0:	f3 0f 1e fa          	endbr64
    51a4:	68 17 00 00 00       	push   $0x17
    51a9:	e9 72 fe ff ff       	jmp    5020 <_init+0x20>
    51ae:	66 90                	xchg   %ax,%ax
    51b0:	f3 0f 1e fa          	endbr64
    51b4:	68 18 00 00 00       	push   $0x18
    51b9:	e9 62 fe ff ff       	jmp    5020 <_init+0x20>
    51be:	66 90                	xchg   %ax,%ax
    51c0:	f3 0f 1e fa          	endbr64
    51c4:	68 19 00 00 00       	push   $0x19
    51c9:	e9 52 fe ff ff       	jmp    5020 <_init+0x20>
    51ce:	66 90                	xchg   %ax,%ax
    51d0:	f3 0f 1e fa          	endbr64
    51d4:	68 1a 00 00 00       	push   $0x1a
    51d9:	e9 42 fe ff ff       	jmp    5020 <_init+0x20>
    51de:	66 90                	xchg   %ax,%ax
    51e0:	f3 0f 1e fa          	endbr64
    51e4:	68 1b 00 00 00       	push   $0x1b
    51e9:	e9 32 fe ff ff       	jmp    5020 <_init+0x20>
    51ee:	66 90                	xchg   %ax,%ax
    51f0:	f3 0f 1e fa          	endbr64
    51f4:	68 1c 00 00 00       	push   $0x1c
    51f9:	e9 22 fe ff ff       	jmp    5020 <_init+0x20>
    51fe:	66 90                	xchg   %ax,%ax
    5200:	f3 0f 1e fa          	endbr64
    5204:	68 1d 00 00 00       	push   $0x1d
    5209:	e9 12 fe ff ff       	jmp    5020 <_init+0x20>
    520e:	66 90                	xchg   %ax,%ax
    5210:	f3 0f 1e fa          	endbr64
    5214:	68 1e 00 00 00       	push   $0x1e
    5219:	e9 02 fe ff ff       	jmp    5020 <_init+0x20>
    521e:	66 90                	xchg   %ax,%ax
    5220:	f3 0f 1e fa          	endbr64
    5224:	68 1f 00 00 00       	push   $0x1f
    5229:	e9 f2 fd ff ff       	jmp    5020 <_init+0x20>
    522e:	66 90                	xchg   %ax,%ax
    5230:	f3 0f 1e fa          	endbr64
    5234:	68 20 00 00 00       	push   $0x20
    5239:	e9 e2 fd ff ff       	jmp    5020 <_init+0x20>
    523e:	66 90                	xchg   %ax,%ax
    5240:	f3 0f 1e fa          	endbr64
    5244:	68 21 00 00 00       	push   $0x21
    5249:	e9 d2 fd ff ff       	jmp    5020 <_init+0x20>
    524e:	66 90                	xchg   %ax,%ax
    5250:	f3 0f 1e fa          	endbr64
    5254:	68 22 00 00 00       	push   $0x22
    5259:	e9 c2 fd ff ff       	jmp    5020 <_init+0x20>
    525e:	66 90                	xchg   %ax,%ax
    5260:	f3 0f 1e fa          	endbr64
    5264:	68 23 00 00 00       	push   $0x23
    5269:	e9 b2 fd ff ff       	jmp    5020 <_init+0x20>
    526e:	66 90                	xchg   %ax,%ax
    5270:	f3 0f 1e fa          	endbr64
    5274:	68 24 00 00 00       	push   $0x24
    5279:	e9 a2 fd ff ff       	jmp    5020 <_init+0x20>
    527e:	66 90                	xchg   %ax,%ax
    5280:	f3 0f 1e fa          	endbr64
    5284:	68 25 00 00 00       	push   $0x25
    5289:	e9 92 fd ff ff       	jmp    5020 <_init+0x20>
    528e:	66 90                	xchg   %ax,%ax
    5290:	f3 0f 1e fa          	endbr64
    5294:	68 26 00 00 00       	push   $0x26
    5299:	e9 82 fd ff ff       	jmp    5020 <_init+0x20>
    529e:	66 90                	xchg   %ax,%ax
    52a0:	f3 0f 1e fa          	endbr64
    52a4:	68 27 00 00 00       	push   $0x27
    52a9:	e9 72 fd ff ff       	jmp    5020 <_init+0x20>
    52ae:	66 90                	xchg   %ax,%ax
    52b0:	f3 0f 1e fa          	endbr64
    52b4:	68 28 00 00 00       	push   $0x28
    52b9:	e9 62 fd ff ff       	jmp    5020 <_init+0x20>
    52be:	66 90                	xchg   %ax,%ax
    52c0:	f3 0f 1e fa          	endbr64
    52c4:	68 29 00 00 00       	push   $0x29
    52c9:	e9 52 fd ff ff       	jmp    5020 <_init+0x20>
    52ce:	66 90                	xchg   %ax,%ax
    52d0:	f3 0f 1e fa          	endbr64
    52d4:	68 2a 00 00 00       	push   $0x2a
    52d9:	e9 42 fd ff ff       	jmp    5020 <_init+0x20>
    52de:	66 90                	xchg   %ax,%ax
    52e0:	f3 0f 1e fa          	endbr64
    52e4:	68 2b 00 00 00       	push   $0x2b
    52e9:	e9 32 fd ff ff       	jmp    5020 <_init+0x20>
    52ee:	66 90                	xchg   %ax,%ax
    52f0:	f3 0f 1e fa          	endbr64
    52f4:	68 2c 00 00 00       	push   $0x2c
    52f9:	e9 22 fd ff ff       	jmp    5020 <_init+0x20>
    52fe:	66 90                	xchg   %ax,%ax
    5300:	f3 0f 1e fa          	endbr64
    5304:	68 2d 00 00 00       	push   $0x2d
    5309:	e9 12 fd ff ff       	jmp    5020 <_init+0x20>
    530e:	66 90                	xchg   %ax,%ax
    5310:	f3 0f 1e fa          	endbr64
    5314:	68 2e 00 00 00       	push   $0x2e
    5319:	e9 02 fd ff ff       	jmp    5020 <_init+0x20>
    531e:	66 90                	xchg   %ax,%ax
    5320:	f3 0f 1e fa          	endbr64
    5324:	68 2f 00 00 00       	push   $0x2f
    5329:	e9 f2 fc ff ff       	jmp    5020 <_init+0x20>
    532e:	66 90                	xchg   %ax,%ax
    5330:	f3 0f 1e fa          	endbr64
    5334:	68 30 00 00 00       	push   $0x30
    5339:	e9 e2 fc ff ff       	jmp    5020 <_init+0x20>
    533e:	66 90                	xchg   %ax,%ax
    5340:	f3 0f 1e fa          	endbr64
    5344:	68 31 00 00 00       	push   $0x31
    5349:	e9 d2 fc ff ff       	jmp    5020 <_init+0x20>
    534e:	66 90                	xchg   %ax,%ax
    5350:	f3 0f 1e fa          	endbr64
    5354:	68 32 00 00 00       	push   $0x32
    5359:	e9 c2 fc ff ff       	jmp    5020 <_init+0x20>
    535e:	66 90                	xchg   %ax,%ax
    5360:	f3 0f 1e fa          	endbr64
    5364:	68 33 00 00 00       	push   $0x33
    5369:	e9 b2 fc ff ff       	jmp    5020 <_init+0x20>
    536e:	66 90                	xchg   %ax,%ax
    5370:	f3 0f 1e fa          	endbr64
    5374:	68 34 00 00 00       	push   $0x34
    5379:	e9 a2 fc ff ff       	jmp    5020 <_init+0x20>
    537e:	66 90                	xchg   %ax,%ax
    5380:	f3 0f 1e fa          	endbr64
    5384:	68 35 00 00 00       	push   $0x35
    5389:	e9 92 fc ff ff       	jmp    5020 <_init+0x20>
    538e:	66 90                	xchg   %ax,%ax
    5390:	f3 0f 1e fa          	endbr64
    5394:	68 36 00 00 00       	push   $0x36
    5399:	e9 82 fc ff ff       	jmp    5020 <_init+0x20>
    539e:	66 90                	xchg   %ax,%ax
    53a0:	f3 0f 1e fa          	endbr64
    53a4:	68 37 00 00 00       	push   $0x37
    53a9:	e9 72 fc ff ff       	jmp    5020 <_init+0x20>
    53ae:	66 90                	xchg   %ax,%ax
    53b0:	f3 0f 1e fa          	endbr64
    53b4:	68 38 00 00 00       	push   $0x38
    53b9:	e9 62 fc ff ff       	jmp    5020 <_init+0x20>
    53be:	66 90                	xchg   %ax,%ax
    53c0:	f3 0f 1e fa          	endbr64
    53c4:	68 39 00 00 00       	push   $0x39
    53c9:	e9 52 fc ff ff       	jmp    5020 <_init+0x20>
    53ce:	66 90                	xchg   %ax,%ax
    53d0:	f3 0f 1e fa          	endbr64
    53d4:	68 3a 00 00 00       	push   $0x3a
    53d9:	e9 42 fc ff ff       	jmp    5020 <_init+0x20>
    53de:	66 90                	xchg   %ax,%ax
    53e0:	f3 0f 1e fa          	endbr64
    53e4:	68 3b 00 00 00       	push   $0x3b
    53e9:	e9 32 fc ff ff       	jmp    5020 <_init+0x20>
    53ee:	66 90                	xchg   %ax,%ax
    53f0:	f3 0f 1e fa          	endbr64
    53f4:	68 3c 00 00 00       	push   $0x3c
    53f9:	e9 22 fc ff ff       	jmp    5020 <_init+0x20>
    53fe:	66 90                	xchg   %ax,%ax
    5400:	f3 0f 1e fa          	endbr64
    5404:	68 3d 00 00 00       	push   $0x3d
    5409:	e9 12 fc ff ff       	jmp    5020 <_init+0x20>
    540e:	66 90                	xchg   %ax,%ax
    5410:	f3 0f 1e fa          	endbr64
    5414:	68 3e 00 00 00       	push   $0x3e
    5419:	e9 02 fc ff ff       	jmp    5020 <_init+0x20>
    541e:	66 90                	xchg   %ax,%ax
    5420:	f3 0f 1e fa          	endbr64
    5424:	68 3f 00 00 00       	push   $0x3f
    5429:	e9 f2 fb ff ff       	jmp    5020 <_init+0x20>
    542e:	66 90                	xchg   %ax,%ax
    5430:	f3 0f 1e fa          	endbr64
    5434:	68 40 00 00 00       	push   $0x40
    5439:	e9 e2 fb ff ff       	jmp    5020 <_init+0x20>
    543e:	66 90                	xchg   %ax,%ax
    5440:	f3 0f 1e fa          	endbr64
    5444:	68 41 00 00 00       	push   $0x41
    5449:	e9 d2 fb ff ff       	jmp    5020 <_init+0x20>
    544e:	66 90                	xchg   %ax,%ax
    5450:	f3 0f 1e fa          	endbr64
    5454:	68 42 00 00 00       	push   $0x42
    5459:	e9 c2 fb ff ff       	jmp    5020 <_init+0x20>
    545e:	66 90                	xchg   %ax,%ax
    5460:	f3 0f 1e fa          	endbr64
    5464:	68 43 00 00 00       	push   $0x43
    5469:	e9 b2 fb ff ff       	jmp    5020 <_init+0x20>
    546e:	66 90                	xchg   %ax,%ax
    5470:	f3 0f 1e fa          	endbr64
    5474:	68 44 00 00 00       	push   $0x44
    5479:	e9 a2 fb ff ff       	jmp    5020 <_init+0x20>
    547e:	66 90                	xchg   %ax,%ax
    5480:	f3 0f 1e fa          	endbr64
    5484:	68 45 00 00 00       	push   $0x45
    5489:	e9 92 fb ff ff       	jmp    5020 <_init+0x20>
    548e:	66 90                	xchg   %ax,%ax
    5490:	f3 0f 1e fa          	endbr64
    5494:	68 46 00 00 00       	push   $0x46
    5499:	e9 82 fb ff ff       	jmp    5020 <_init+0x20>
    549e:	66 90                	xchg   %ax,%ax
    54a0:	f3 0f 1e fa          	endbr64
    54a4:	68 47 00 00 00       	push   $0x47
    54a9:	e9 72 fb ff ff       	jmp    5020 <_init+0x20>
    54ae:	66 90                	xchg   %ax,%ax
    54b0:	f3 0f 1e fa          	endbr64
    54b4:	68 48 00 00 00       	push   $0x48
    54b9:	e9 62 fb ff ff       	jmp    5020 <_init+0x20>
    54be:	66 90                	xchg   %ax,%ax
    54c0:	f3 0f 1e fa          	endbr64
    54c4:	68 49 00 00 00       	push   $0x49
    54c9:	e9 52 fb ff ff       	jmp    5020 <_init+0x20>
    54ce:	66 90                	xchg   %ax,%ax
    54d0:	f3 0f 1e fa          	endbr64
    54d4:	68 4a 00 00 00       	push   $0x4a
    54d9:	e9 42 fb ff ff       	jmp    5020 <_init+0x20>
    54de:	66 90                	xchg   %ax,%ax
    54e0:	f3 0f 1e fa          	endbr64
    54e4:	68 4b 00 00 00       	push   $0x4b
    54e9:	e9 32 fb ff ff       	jmp    5020 <_init+0x20>
    54ee:	66 90                	xchg   %ax,%ax
    54f0:	f3 0f 1e fa          	endbr64
    54f4:	68 4c 00 00 00       	push   $0x4c
    54f9:	e9 22 fb ff ff       	jmp    5020 <_init+0x20>
    54fe:	66 90                	xchg   %ax,%ax
    5500:	f3 0f 1e fa          	endbr64
    5504:	68 4d 00 00 00       	push   $0x4d
    5509:	e9 12 fb ff ff       	jmp    5020 <_init+0x20>
    550e:	66 90                	xchg   %ax,%ax
    5510:	f3 0f 1e fa          	endbr64
    5514:	68 4e 00 00 00       	push   $0x4e
    5519:	e9 02 fb ff ff       	jmp    5020 <_init+0x20>
    551e:	66 90                	xchg   %ax,%ax
    5520:	f3 0f 1e fa          	endbr64
    5524:	68 4f 00 00 00       	push   $0x4f
    5529:	e9 f2 fa ff ff       	jmp    5020 <_init+0x20>
    552e:	66 90                	xchg   %ax,%ax
    5530:	f3 0f 1e fa          	endbr64
    5534:	68 50 00 00 00       	push   $0x50
    5539:	e9 e2 fa ff ff       	jmp    5020 <_init+0x20>
    553e:	66 90                	xchg   %ax,%ax
    5540:	f3 0f 1e fa          	endbr64
    5544:	68 51 00 00 00       	push   $0x51
    5549:	e9 d2 fa ff ff       	jmp    5020 <_init+0x20>
    554e:	66 90                	xchg   %ax,%ax
    5550:	f3 0f 1e fa          	endbr64
    5554:	68 52 00 00 00       	push   $0x52
    5559:	e9 c2 fa ff ff       	jmp    5020 <_init+0x20>
    555e:	66 90                	xchg   %ax,%ax
    5560:	f3 0f 1e fa          	endbr64
    5564:	68 53 00 00 00       	push   $0x53
    5569:	e9 b2 fa ff ff       	jmp    5020 <_init+0x20>
    556e:	66 90                	xchg   %ax,%ax
    5570:	f3 0f 1e fa          	endbr64
    5574:	68 54 00 00 00       	push   $0x54
    5579:	e9 a2 fa ff ff       	jmp    5020 <_init+0x20>
    557e:	66 90                	xchg   %ax,%ax
    5580:	f3 0f 1e fa          	endbr64
    5584:	68 55 00 00 00       	push   $0x55
    5589:	e9 92 fa ff ff       	jmp    5020 <_init+0x20>
    558e:	66 90                	xchg   %ax,%ax
    5590:	f3 0f 1e fa          	endbr64
    5594:	68 56 00 00 00       	push   $0x56
    5599:	e9 82 fa ff ff       	jmp    5020 <_init+0x20>
    559e:	66 90                	xchg   %ax,%ax
    55a0:	f3 0f 1e fa          	endbr64
    55a4:	68 57 00 00 00       	push   $0x57
    55a9:	e9 72 fa ff ff       	jmp    5020 <_init+0x20>
    55ae:	66 90                	xchg   %ax,%ax
    55b0:	f3 0f 1e fa          	endbr64
    55b4:	68 58 00 00 00       	push   $0x58
    55b9:	e9 62 fa ff ff       	jmp    5020 <_init+0x20>
    55be:	66 90                	xchg   %ax,%ax
    55c0:	f3 0f 1e fa          	endbr64
    55c4:	68 59 00 00 00       	push   $0x59
    55c9:	e9 52 fa ff ff       	jmp    5020 <_init+0x20>
    55ce:	66 90                	xchg   %ax,%ax
    55d0:	f3 0f 1e fa          	endbr64
    55d4:	68 5a 00 00 00       	push   $0x5a
    55d9:	e9 42 fa ff ff       	jmp    5020 <_init+0x20>
    55de:	66 90                	xchg   %ax,%ax
    55e0:	f3 0f 1e fa          	endbr64
    55e4:	68 5b 00 00 00       	push   $0x5b
    55e9:	e9 32 fa ff ff       	jmp    5020 <_init+0x20>
    55ee:	66 90                	xchg   %ax,%ax
    55f0:	f3 0f 1e fa          	endbr64
    55f4:	68 5c 00 00 00       	push   $0x5c
    55f9:	e9 22 fa ff ff       	jmp    5020 <_init+0x20>
    55fe:	66 90                	xchg   %ax,%ax
    5600:	f3 0f 1e fa          	endbr64
    5604:	68 5d 00 00 00       	push   $0x5d
    5609:	e9 12 fa ff ff       	jmp    5020 <_init+0x20>
    560e:	66 90                	xchg   %ax,%ax
    5610:	f3 0f 1e fa          	endbr64
    5614:	68 5e 00 00 00       	push   $0x5e
    5619:	e9 02 fa ff ff       	jmp    5020 <_init+0x20>
    561e:	66 90                	xchg   %ax,%ax
    5620:	f3 0f 1e fa          	endbr64
    5624:	68 5f 00 00 00       	push   $0x5f
    5629:	e9 f2 f9 ff ff       	jmp    5020 <_init+0x20>
    562e:	66 90                	xchg   %ax,%ax
    5630:	f3 0f 1e fa          	endbr64
    5634:	68 60 00 00 00       	push   $0x60
    5639:	e9 e2 f9 ff ff       	jmp    5020 <_init+0x20>
    563e:	66 90                	xchg   %ax,%ax
    5640:	f3 0f 1e fa          	endbr64
    5644:	68 61 00 00 00       	push   $0x61
    5649:	e9 d2 f9 ff ff       	jmp    5020 <_init+0x20>
    564e:	66 90                	xchg   %ax,%ax
    5650:	f3 0f 1e fa          	endbr64
    5654:	68 62 00 00 00       	push   $0x62
    5659:	e9 c2 f9 ff ff       	jmp    5020 <_init+0x20>
    565e:	66 90                	xchg   %ax,%ax
    5660:	f3 0f 1e fa          	endbr64
    5664:	68 63 00 00 00       	push   $0x63
    5669:	e9 b2 f9 ff ff       	jmp    5020 <_init+0x20>
    566e:	66 90                	xchg   %ax,%ax
    5670:	f3 0f 1e fa          	endbr64
    5674:	68 64 00 00 00       	push   $0x64
    5679:	e9 a2 f9 ff ff       	jmp    5020 <_init+0x20>
    567e:	66 90                	xchg   %ax,%ax
    5680:	f3 0f 1e fa          	endbr64
    5684:	68 65 00 00 00       	push   $0x65
    5689:	e9 92 f9 ff ff       	jmp    5020 <_init+0x20>
    568e:	66 90                	xchg   %ax,%ax
    5690:	f3 0f 1e fa          	endbr64
    5694:	68 66 00 00 00       	push   $0x66
    5699:	e9 82 f9 ff ff       	jmp    5020 <_init+0x20>
    569e:	66 90                	xchg   %ax,%ax
    56a0:	f3 0f 1e fa          	endbr64
    56a4:	68 67 00 00 00       	push   $0x67
    56a9:	e9 72 f9 ff ff       	jmp    5020 <_init+0x20>
    56ae:	66 90                	xchg   %ax,%ax
    56b0:	f3 0f 1e fa          	endbr64
    56b4:	68 68 00 00 00       	push   $0x68
    56b9:	e9 62 f9 ff ff       	jmp    5020 <_init+0x20>
    56be:	66 90                	xchg   %ax,%ax
    56c0:	f3 0f 1e fa          	endbr64
    56c4:	68 69 00 00 00       	push   $0x69
    56c9:	e9 52 f9 ff ff       	jmp    5020 <_init+0x20>
    56ce:	66 90                	xchg   %ax,%ax
    56d0:	f3 0f 1e fa          	endbr64
    56d4:	68 6a 00 00 00       	push   $0x6a
    56d9:	e9 42 f9 ff ff       	jmp    5020 <_init+0x20>
    56de:	66 90                	xchg   %ax,%ax
    56e0:	f3 0f 1e fa          	endbr64
    56e4:	68 6b 00 00 00       	push   $0x6b
    56e9:	e9 32 f9 ff ff       	jmp    5020 <_init+0x20>
    56ee:	66 90                	xchg   %ax,%ax
    56f0:	f3 0f 1e fa          	endbr64
    56f4:	68 6c 00 00 00       	push   $0x6c
    56f9:	e9 22 f9 ff ff       	jmp    5020 <_init+0x20>
    56fe:	66 90                	xchg   %ax,%ax
    5700:	f3 0f 1e fa          	endbr64
    5704:	68 6d 00 00 00       	push   $0x6d
    5709:	e9 12 f9 ff ff       	jmp    5020 <_init+0x20>
    570e:	66 90                	xchg   %ax,%ax
    5710:	f3 0f 1e fa          	endbr64
    5714:	68 6e 00 00 00       	push   $0x6e
    5719:	e9 02 f9 ff ff       	jmp    5020 <_init+0x20>
    571e:	66 90                	xchg   %ax,%ax
    5720:	f3 0f 1e fa          	endbr64
    5724:	68 6f 00 00 00       	push   $0x6f
    5729:	e9 f2 f8 ff ff       	jmp    5020 <_init+0x20>
    572e:	66 90                	xchg   %ax,%ax
    5730:	f3 0f 1e fa          	endbr64
    5734:	68 70 00 00 00       	push   $0x70
    5739:	e9 e2 f8 ff ff       	jmp    5020 <_init+0x20>
    573e:	66 90                	xchg   %ax,%ax

Disassembly of section .plt.got:

0000000000005740 <__cxa_finalize@plt>:
    5740:	f3 0f 1e fa          	endbr64
    5744:	ff 25 7e 88 04 00    	jmp    *0x4887e(%rip)        # 4dfc8 <__cxa_finalize@GLIBC_2.2.5>
    574a:	66 0f 1f 44 00 00    	nopw   0x0(%rax,%rax,1)

Disassembly of section .plt.sec:

0000000000005750 <_ZNKSt9basic_iosIcSt11char_traitsIcEE4failEv@plt>:
    5750:	f3 0f 1e fa          	endbr64
    5754:	ff 25 e6 84 04 00    	jmp    *0x484e6(%rip)        # 4dc40 <_ZNKSt9basic_iosIcSt11char_traitsIcEE4failEv@GLIBCXX_3.4>
    575a:	66 0f 1f 44 00 00    	nopw   0x0(%rax,%rax,1)

0000000000005760 <_Znam@plt>:
    5760:	f3 0f 1e fa          	endbr64
    5764:	ff 25 de 84 04 00    	jmp    *0x484de(%rip)        # 4dc48 <_Znam@GLIBCXX_3.4>
    576a:	66 0f 1f 44 00 00    	nopw   0x0(%rax,%rax,1)

0000000000005770 <_ZNKSt7__cxx1112basic_stringIcSt11char_traitsIcESaIcEE7compareERKS4_@plt>:
    5770:	f3 0f 1e fa          	endbr64
    5774:	ff 25 d6 84 04 00    	jmp    *0x484d6(%rip)        # 4dc50 <_ZNKSt7__cxx1112basic_stringIcSt11char_traitsIcESaIcEE7compareERKS4_@GLIBCXX_3.4.21>
    577a:	66 0f 1f 44 00 00    	nopw   0x0(%rax,%rax,1)

0000000000005780 <_ZNSt7__cxx1112basic_stringIcSt11char_traitsIcESaIcEEaSERKS4_@plt>:
    5780:	f3 0f 1e fa          	endbr64
    5784:	ff 25 ce 84 04 00    	jmp    *0x484ce(%rip)        # 4dc58 <_ZNSt7__cxx1112basic_stringIcSt11char_traitsIcESaIcEEaSERKS4_@GLIBCXX_3.4.21>
    578a:	66 0f 1f 44 00 00    	nopw   0x0(%rax,%rax,1)

0000000000005790 <_ZNSt7__cxx1112basic_stringIcSt11char_traitsIcESaIcEE6appendEPKcm@plt>:
    5790:	f3 0f 1e fa          	endbr64
    5794:	ff 25 c6 84 04 00    	jmp    *0x484c6(%rip)        # 4dc60 <_ZNSt7__cxx1112basic_stringIcSt11char_traitsIcESaIcEE6appendEPKcm@GLIBCXX_3.4.21>
    579a:	66 0f 1f 44 00 00    	nopw   0x0(%rax,%rax,1)

00000000000057a0 <_ZSt29_Rb_tree_insert_and_rebalancebPSt18_Rb_tree_node_baseS0_RS_@plt>:
    57a0:	f3 0f 1e fa          	endbr64
    57a4:	ff 25 be 84 04 00    	jmp    *0x484be(%rip)        # 4dc68 <_ZSt29_Rb_tree_insert_and_rebalancebPSt18_Rb_tree_node_baseS0_RS_@GLIBCXX_3.4>
    57aa:	66 0f 1f 44 00 00    	nopw   0x0(%rax,%rax,1)

00000000000057b0 <_ZSt7getlineIcSt11char_traitsIcESaIcEERSt13basic_istreamIT_T0_ES7_RNSt7__cxx1112basic_stringIS4_S5_T1_EE@plt>:
    57b0:	f3 0f 1e fa          	endbr64
    57b4:	ff 25 b6 84 04 00    	jmp    *0x484b6(%rip)        # 4dc70 <_ZSt7getlineIcSt11char_traitsIcESaIcEERSt13basic_istreamIT_T0_ES7_RNSt7__cxx1112basic_stringIS4_S5_T1_EE@GLIBCXX_3.4.21>
    57ba:	66 0f 1f 44 00 00    	nopw   0x0(%rax,%rax,1)

00000000000057c0 <_ZNKSt7__cxx1112basic_stringIcSt11char_traitsIcESaIcEE4cendEv@plt>:
    57c0:	f3 0f 1e fa          	endbr64
    57c4:	ff 25 ae 84 04 00    	jmp    *0x484ae(%rip)        # 4dc78 <_ZNKSt7__cxx1112basic_stringIcSt11char_traitsIcESaIcEE4cendEv@GLIBCXX_3.4.21>
    57ca:	66 0f 1f 44 00 00    	nopw   0x0(%rax,%rax,1)

00000000000057d0 <_ZNSt7__cxx1112basic_stringIcSt11char_traitsIcESaIcEE13_S_copy_charsEPcN9__gnu_cxx17__normal_iteratorIPKcS4_EESA_@plt>:
    57d0:	f3 0f 1e fa          	endbr64
    57d4:	ff 25 a6 84 04 00    	jmp    *0x484a6(%rip)        # 4dc80 <_ZNSt7__cxx1112basic_stringIcSt11char_traitsIcESaIcEE13_S_copy_charsEPcN9__gnu_cxx17__normal_iteratorIPKcS4_EESA_@GLIBCXX_3.4.21>
    57da:	66 0f 1f 44 00 00    	nopw   0x0(%rax,%rax,1)

00000000000057e0 <_ZNSt14basic_ifstreamIcSt11char_traitsIcEED1Ev@plt>:
    57e0:	f3 0f 1e fa          	endbr64
    57e4:	ff 25 9e 84 04 00    	jmp    *0x4849e(%rip)        # 4dc88 <_ZNSt14basic_ifstreamIcSt11char_traitsIcEED1Ev@GLIBCXX_3.4>
    57ea:	66 0f 1f 44 00 00    	nopw   0x0(%rax,%rax,1)

00000000000057f0 <_ZNSt7__cxx1112basic_stringIcSt11char_traitsIcESaIcEE13_S_copy_charsEPcS5_S5_@plt>:
    57f0:	f3 0f 1e fa          	endbr64
    57f4:	ff 25 96 84 04 00    	jmp    *0x48496(%rip)        # 4dc90 <_ZNSt7__cxx1112basic_stringIcSt11char_traitsIcESaIcEE13_S_copy_charsEPcS5_S5_@GLIBCXX_3.4.21>
    57fa:	66 0f 1f 44 00 00    	nopw   0x0(%rax,%rax,1)

0000000000005800 <popen@plt>:
    5800:	f3 0f 1e fa          	endbr64
    5804:	ff 25 8e 84 04 00    	jmp    *0x4848e(%rip)        # 4dc98 <popen@GLIBC_2.2.5>
    580a:	66 0f 1f 44 00 00    	nopw   0x0(%rax,%rax,1)

0000000000005810 <_ZSt19__throw_regex_errorNSt15regex_constants10error_typeE@plt>:
    5810:	f3 0f 1e fa          	endbr64
    5814:	ff 25 86 84 04 00    	jmp    *0x48486(%rip)        # 4dca0 <_ZSt19__throw_regex_errorNSt15regex_constants10error_typeE@GLIBCXX_3.4.15>
    581a:	66 0f 1f 44 00 00    	nopw   0x0(%rax,%rax,1)

0000000000005820 <_ZSt17__throw_bad_allocv@plt>:
    5820:	f3 0f 1e fa          	endbr64
    5824:	ff 25 7e 84 04 00    	jmp    *0x4847e(%rip)        # 4dca8 <_ZSt17__throw_bad_allocv@GLIBCXX_3.4>
    582a:	66 0f 1f 44 00 00    	nopw   0x0(%rax,%rax,1)

0000000000005830 <strchr@plt>:
    5830:	f3 0f 1e fa          	endbr64
    5834:	ff 25 76 84 04 00    	jmp    *0x48476(%rip)        # 4dcb0 <strchr@GLIBC_2.2.5>
    583a:	66 0f 1f 44 00 00    	nopw   0x0(%rax,%rax,1)

0000000000005840 <_ZSt25__throw_bad_function_callv@plt>:
    5840:	f3 0f 1e fa          	endbr64
    5844:	ff 25 6e 84 04 00    	jmp    *0x4846e(%rip)        # 4dcb8 <_ZSt25__throw_bad_function_callv@GLIBCXX_3.4.14>
    584a:	66 0f 1f 44 00 00    	nopw   0x0(%rax,%rax,1)

0000000000005850 <_ZNKSt7__cxx1112basic_stringIcSt11char_traitsIcESaIcEE13get_allocatorEv@plt>:
    5850:	f3 0f 1e fa          	endbr64
    5854:	ff 25 66 84 04 00    	jmp    *0x48466(%rip)        # 4dcc0 <_ZNKSt7__cxx1112basic_stringIcSt11char_traitsIcESaIcEE13get_allocatorEv@GLIBCXX_3.4.21>
    585a:	66 0f 1f 44 00 00    	nopw   0x0(%rax,%rax,1)

0000000000005860 <__cxa_begin_catch@plt>:
    5860:	f3 0f 1e fa          	endbr64
    5864:	ff 25 5e 84 04 00    	jmp    *0x4845e(%rip)        # 4dcc8 <__cxa_begin_catch@CXXABI_1.3>
    586a:	66 0f 1f 44 00 00    	nopw   0x0(%rax,%rax,1)

0000000000005870 <_ZNKSt7__cxx1112basic_stringIcSt11char_traitsIcESaIcEE5c_strEv@plt>:
    5870:	f3 0f 1e fa          	endbr64
    5874:	ff 25 56 84 04 00    	jmp    *0x48456(%rip)        # 4dcd0 <_ZNKSt7__cxx1112basic_stringIcSt11char_traitsIcESaIcEE5c_strEv@GLIBCXX_3.4.21>
    587a:	66 0f 1f 44 00 00    	nopw   0x0(%rax,%rax,1)

0000000000005880 <_ZSt9use_facetISt5ctypeIcEERKT_RKSt6locale@plt>:
    5880:	f3 0f 1e fa          	endbr64
    5884:	ff 25 4e 84 04 00    	jmp    *0x4844e(%rip)        # 4dcd8 <_ZSt9use_facetISt5ctypeIcEERKT_RKSt6locale@GLIBCXX_3.4>
    588a:	66 0f 1f 44 00 00    	nopw   0x0(%rax,%rax,1)

0000000000005890 <_ZNSt7__cxx1112basic_stringIcSt11char_traitsIcESaIcEEC1ERKS4_@plt>:
    5890:	f3 0f 1e fa          	endbr64
    5894:	ff 25 46 84 04 00    	jmp    *0x48446(%rip)        # 4dce0 <_ZNSt7__cxx1112basic_stringIcSt11char_traitsIcESaIcEEC1ERKS4_@GLIBCXX_3.4.21>
    589a:	66 0f 1f 44 00 00    	nopw   0x0(%rax,%rax,1)

00000000000058a0 <strlen@plt>:
    58a0:	f3 0f 1e fa          	endbr64
    58a4:	ff 25 3e 84 04 00    	jmp    *0x4843e(%rip)        # 4dce8 <strlen@GLIBC_2.2.5>
    58aa:	66 0f 1f 44 00 00    	nopw   0x0(%rax,%rax,1)

00000000000058b0 <_ZNKSt9basic_iosIcSt11char_traitsIcEE5rdbufEv@plt>:
    58b0:	f3 0f 1e fa          	endbr64
    58b4:	ff 25 36 84 04 00    	jmp    *0x48436(%rip)        # 4dcf0 <_ZNKSt9basic_iosIcSt11char_traitsIcEE5rdbufEv@GLIBCXX_3.4>
    58ba:	66 0f 1f 44 00 00    	nopw   0x0(%rax,%rax,1)

00000000000058c0 <memcmp@plt>:
    58c0:	f3 0f 1e fa          	endbr64
    58c4:	ff 25 2e 84 04 00    	jmp    *0x4842e(%rip)        # 4dcf8 <memcmp@GLIBC_2.2.5>
    58ca:	66 0f 1f 44 00 00    	nopw   0x0(%rax,%rax,1)

00000000000058d0 <_ZNKSt9basic_iosIcSt11char_traitsIcEEntEv@plt>:
    58d0:	f3 0f 1e fa          	endbr64
    58d4:	ff 25 26 84 04 00    	jmp    *0x48426(%rip)        # 4dd00 <_ZNKSt9basic_iosIcSt11char_traitsIcEEntEv@GLIBCXX_3.4>
    58da:	66 0f 1f 44 00 00    	nopw   0x0(%rax,%rax,1)

00000000000058e0 <_ZNSt7__cxx1119basic_istringstreamIcSt11char_traitsIcESaIcEED1Ev@plt>:
    58e0:	f3 0f 1e fa          	endbr64
    58e4:	ff 25 1e 84 04 00    	jmp    *0x4841e(%rip)        # 4dd08 <_ZNSt7__cxx1119basic_istringstreamIcSt11char_traitsIcESaIcEED1Ev@GLIBCXX_3.4.21>
    58ea:	66 0f 1f 44 00 00    	nopw   0x0(%rax,%rax,1)

00000000000058f0 <__cxa_allocate_exception@plt>:
    58f0:	f3 0f 1e fa          	endbr64
    58f4:	ff 25 16 84 04 00    	jmp    *0x48416(%rip)        # 4dd10 <__cxa_allocate_exception@CXXABI_1.3>
    58fa:	66 0f 1f 44 00 00    	nopw   0x0(%rax,%rax,1)

0000000000005900 <_ZNKSt7__cxx1112basic_stringIcSt11char_traitsIcESaIcEE13find_first_ofEPKcm@plt>:
    5900:	f3 0f 1e fa          	endbr64
    5904:	ff 25 0e 84 04 00    	jmp    *0x4840e(%rip)        # 4dd18 <_ZNKSt7__cxx1112basic_stringIcSt11char_traitsIcESaIcEE13find_first_ofEPKcm@GLIBCXX_3.4.21>
    590a:	66 0f 1f 44 00 00    	nopw   0x0(%rax,%rax,1)

0000000000005910 <_ZNKSt6locale2id5_M_idEv@plt>:
    5910:	f3 0f 1e fa          	endbr64
    5914:	ff 25 06 84 04 00    	jmp    *0x48406(%rip)        # 4dd20 <_ZNKSt6locale2id5_M_idEv@GLIBCXX_3.4>
    591a:	66 0f 1f 44 00 00    	nopw   0x0(%rax,%rax,1)

0000000000005920 <_ZSt20__throw_length_errorPKc@plt>:
    5920:	f3 0f 1e fa          	endbr64
    5924:	ff 25 fe 83 04 00    	jmp    *0x483fe(%rip)        # 4dd28 <_ZSt20__throw_length_errorPKc@GLIBCXX_3.4>
    592a:	66 0f 1f 44 00 00    	nopw   0x0(%rax,%rax,1)

0000000000005930 <_ZNSt15basic_streambufIcSt11char_traitsIcEE6sbumpcEv@plt>:
    5930:	f3 0f 1e fa          	endbr64
    5934:	ff 25 f6 83 04 00    	jmp    *0x483f6(%rip)        # 4dd30 <_ZNSt15basic_streambufIcSt11char_traitsIcEE6sbumpcEv@GLIBCXX_3.4>
    593a:	66 0f 1f 44 00 00    	nopw   0x0(%rax,%rax,1)

0000000000005940 <_ZNSt7__cxx1112basic_stringIcSt11char_traitsIcESaIcEE4dataEv@plt>:
    5940:	f3 0f 1e fa          	endbr64
    5944:	ff 25 ee 83 04 00    	jmp    *0x483ee(%rip)        # 4dd38 <_ZNSt7__cxx1112basic_stringIcSt11char_traitsIcESaIcEE4dataEv@GLIBCXX_3.4.26>
    594a:	66 0f 1f 44 00 00    	nopw   0x0(%rax,%rax,1)

0000000000005950 <_ZNSt7__cxx1112basic_stringIcSt11char_traitsIcESaIcEE3endEv@plt>:
    5950:	f3 0f 1e fa          	endbr64
    5954:	ff 25 e6 83 04 00    	jmp    *0x483e6(%rip)        # 4dd40 <_ZNSt7__cxx1112basic_stringIcSt11char_traitsIcESaIcEE3endEv@GLIBCXX_3.4.21>
    595a:	66 0f 1f 44 00 00    	nopw   0x0(%rax,%rax,1)

0000000000005960 <_ZNSt7__cxx1112basic_stringIcSt11char_traitsIcESaIcEEC1EOS4_@plt>:
    5960:	f3 0f 1e fa          	endbr64
    5964:	ff 25 de 83 04 00    	jmp    *0x483de(%rip)        # 4dd48 <_ZNSt7__cxx1112basic_stringIcSt11char_traitsIcESaIcEEC1EOS4_@GLIBCXX_3.4.21>
    596a:	66 0f 1f 44 00 00    	nopw   0x0(%rax,%rax,1)

0000000000005970 <_ZNSirsERl@plt>:
    5970:	f3 0f 1e fa          	endbr64
    5974:	ff 25 d6 83 04 00    	jmp    *0x483d6(%rip)        # 4dd50 <_ZNSirsERl@GLIBCXX_3.4>
    597a:	66 0f 1f 44 00 00    	nopw   0x0(%rax,%rax,1)

0000000000005980 <_ZNSt7__cxx1112basic_stringIcSt11char_traitsIcESaIcEED1Ev@plt>:
    5980:	f3 0f 1e fa          	endbr64
    5984:	ff 25 ce 83 04 00    	jmp    *0x483ce(%rip)        # 4dd58 <_ZNSt7__cxx1112basic_stringIcSt11char_traitsIcESaIcEED1Ev@GLIBCXX_3.4.21>
    598a:	66 0f 1f 44 00 00    	nopw   0x0(%rax,%rax,1)

0000000000005990 <_ZNSt6localeC1ERKS_@plt>:
    5990:	f3 0f 1e fa          	endbr64
    5994:	ff 25 c6 83 04 00    	jmp    *0x483c6(%rip)        # 4dd60 <_ZNSt6localeC1ERKS_@GLIBCXX_3.4>
    599a:	66 0f 1f 44 00 00    	nopw   0x0(%rax,%rax,1)

00000000000059a0 <_ZNSt7__cxx1112basic_stringIcSt11char_traitsIcESaIcEEpLEc@plt>:
    59a0:	f3 0f 1e fa          	endbr64
    59a4:	ff 25 be 83 04 00    	jmp    *0x483be(%rip)        # 4dd68 <_ZNSt7__cxx1112basic_stringIcSt11char_traitsIcESaIcEEpLEc@GLIBCXX_3.4.21>
    59aa:	66 0f 1f 44 00 00    	nopw   0x0(%rax,%rax,1)

00000000000059b0 <__cxa_guard_abort@plt>:
    59b0:	f3 0f 1e fa          	endbr64
    59b4:	ff 25 b6 83 04 00    	jmp    *0x483b6(%rip)        # 4dd70 <__cxa_guard_abort@CXXABI_1.3>
    59ba:	66 0f 1f 44 00 00    	nopw   0x0(%rax,%rax,1)

00000000000059c0 <__cxa_guard_release@plt>:
    59c0:	f3 0f 1e fa          	endbr64
    59c4:	ff 25 ae 83 04 00    	jmp    *0x483ae(%rip)        # 4dd78 <__cxa_guard_release@CXXABI_1.3>
    59ca:	66 0f 1f 44 00 00    	nopw   0x0(%rax,%rax,1)

00000000000059d0 <_ZNSt7__cxx1112basic_stringIcSt11char_traitsIcESaIcEE13_M_set_lengthEm@plt>:
    59d0:	f3 0f 1e fa          	endbr64
    59d4:	ff 25 a6 83 04 00    	jmp    *0x483a6(%rip)        # 4dd80 <_ZNSt7__cxx1112basic_stringIcSt11char_traitsIcESaIcEE13_M_set_lengthEm@GLIBCXX_3.4.21>
    59da:	66 0f 1f 44 00 00    	nopw   0x0(%rax,%rax,1)

00000000000059e0 <_ZSt18_Rb_tree_incrementPSt18_Rb_tree_node_base@plt>:
    59e0:	f3 0f 1e fa          	endbr64
    59e4:	ff 25 9e 83 04 00    	jmp    *0x4839e(%rip)        # 4dd88 <_ZSt18_Rb_tree_incrementPSt18_Rb_tree_node_base@GLIBCXX_3.4>
    59ea:	66 0f 1f 44 00 00    	nopw   0x0(%rax,%rax,1)

00000000000059f0 <_ZNKSt7__cxx1112basic_stringIcSt11char_traitsIcESaIcEE4sizeEv@plt>:
    59f0:	f3 0f 1e fa          	endbr64
    59f4:	ff 25 96 83 04 00    	jmp    *0x48396(%rip)        # 4dd90 <_ZNKSt7__cxx1112basic_stringIcSt11char_traitsIcESaIcEE4sizeEv@GLIBCXX_3.4.21>
    59fa:	66 0f 1f 44 00 00    	nopw   0x0(%rax,%rax,1)

0000000000005a00 <_ZNSt7__cxx1118basic_stringstreamIcSt11char_traitsIcESaIcEEC1Ev@plt>:
    5a00:	f3 0f 1e fa          	endbr64
    5a04:	ff 25 8e 83 04 00    	jmp    *0x4838e(%rip)        # 4dd98 <_ZNSt7__cxx1118basic_stringstreamIcSt11char_traitsIcESaIcEEC1Ev@GLIBCXX_3.4.26>
    5a0a:	66 0f 1f 44 00 00    	nopw   0x0(%rax,%rax,1)

0000000000005a10 <_ZSt19__throw_logic_errorPKc@plt>:
    5a10:	f3 0f 1e fa          	endbr64
    5a14:	ff 25 86 83 04 00    	jmp    *0x48386(%rip)        # 4dda0 <_ZSt19__throw_logic_errorPKc@GLIBCXX_3.4>
    5a1a:	66 0f 1f 44 00 00    	nopw   0x0(%rax,%rax,1)

0000000000005a20 <__cxa_free_exception@plt>:
    5a20:	f3 0f 1e fa          	endbr64
    5a24:	ff 25 7e 83 04 00    	jmp    *0x4837e(%rip)        # 4dda8 <__cxa_free_exception@CXXABI_1.3>
    5a2a:	66 0f 1f 44 00 00    	nopw   0x0(%rax,%rax,1)

0000000000005a30 <_ZNSt7__cxx1118basic_stringstreamIcSt11char_traitsIcESaIcEED1Ev@plt>:
    5a30:	f3 0f 1e fa          	endbr64
    5a34:	ff 25 76 83 04 00    	jmp    *0x48376(%rip)        # 4ddb0 <_ZNSt7__cxx1118basic_stringstreamIcSt11char_traitsIcESaIcEED1Ev@GLIBCXX_3.4.21>
    5a3a:	66 0f 1f 44 00 00    	nopw   0x0(%rax,%rax,1)

0000000000005a40 <_ZSt28__throw_bad_array_new_lengthv@plt>:
    5a40:	f3 0f 1e fa          	endbr64
    5a44:	ff 25 6e 83 04 00    	jmp    *0x4836e(%rip)        # 4ddb8 <_ZSt28__throw_bad_array_new_lengthv@GLIBCXX_3.4.29>
    5a4a:	66 0f 1f 44 00 00    	nopw   0x0(%rax,%rax,1)

0000000000005a50 <_ZNSt7__cxx1112basic_stringIcSt11char_traitsIcESaIcEE13_M_local_dataEv@plt>:
    5a50:	f3 0f 1e fa          	endbr64
    5a54:	ff 25 66 83 04 00    	jmp    *0x48366(%rip)        # 4ddc0 <_ZNSt7__cxx1112basic_stringIcSt11char_traitsIcESaIcEE13_M_local_dataEv@GLIBCXX_3.4.21>
    5a5a:	66 0f 1f 44 00 00    	nopw   0x0(%rax,%rax,1)

0000000000005a60 <_ZNSt7__cxx1112basic_stringIcSt11char_traitsIcESaIcEE7_M_dataEPc@plt>:
    5a60:	f3 0f 1e fa          	endbr64
    5a64:	ff 25 5e 83 04 00    	jmp    *0x4835e(%rip)        # 4ddc8 <_ZNSt7__cxx1112basic_stringIcSt11char_traitsIcESaIcEE7_M_dataEPc@GLIBCXX_3.4.21>
    5a6a:	66 0f 1f 44 00 00    	nopw   0x0(%rax,%rax,1)

0000000000005a70 <_ZNSt7__cxx1112basic_stringIcSt11char_traitsIcESaIcEE5beginEv@plt>:
    5a70:	f3 0f 1e fa          	endbr64
    5a74:	ff 25 56 83 04 00    	jmp    *0x48356(%rip)        # 4ddd0 <_ZNSt7__cxx1112basic_stringIcSt11char_traitsIcESaIcEE5beginEv@GLIBCXX_3.4.21>
    5a7a:	66 0f 1f 44 00 00    	nopw   0x0(%rax,%rax,1)

0000000000005a80 <_ZStlsIcSt11char_traitsIcESaIcEERSt13basic_ostreamIT_T0_ES7_RKNSt7__cxx1112basic_stringIS4_S5_T1_EE@plt>:
    5a80:	f3 0f 1e fa          	endbr64
    5a84:	ff 25 4e 83 04 00    	jmp    *0x4834e(%rip)        # 4ddd8 <_ZStlsIcSt11char_traitsIcESaIcEERSt13basic_ostreamIT_T0_ES7_RKNSt7__cxx1112basic_stringIS4_S5_T1_EE@GLIBCXX_3.4.21>
    5a8a:	66 0f 1f 44 00 00    	nopw   0x0(%rax,%rax,1)

0000000000005a90 <_ZSt9use_facetINSt7__cxx117collateIcEEERKT_RKSt6locale@plt>:
    5a90:	f3 0f 1e fa          	endbr64
    5a94:	ff 25 46 83 04 00    	jmp    *0x48346(%rip)        # 4dde0 <_ZSt9use_facetINSt7__cxx117collateIcEEERKT_RKSt6locale@GLIBCXX_3.4.21>
    5a9a:	66 0f 1f 44 00 00    	nopw   0x0(%rax,%rax,1)

0000000000005aa0 <_ZNKSt7__cxx1112basic_stringIcSt11char_traitsIcESaIcEE5beginEv@plt>:
    5aa0:	f3 0f 1e fa          	endbr64
    5aa4:	ff 25 3e 83 04 00    	jmp    *0x4833e(%rip)        # 4dde8 <_ZNKSt7__cxx1112basic_stringIcSt11char_traitsIcESaIcEE5beginEv@GLIBCXX_3.4.21>
    5aaa:	66 0f 1f 44 00 00    	nopw   0x0(%rax,%rax,1)

0000000000005ab0 <_ZNSt7__cxx1112basic_stringIcSt11char_traitsIcESaIcEEpLEPKc@plt>:
    5ab0:	f3 0f 1e fa          	endbr64
    5ab4:	ff 25 36 83 04 00    	jmp    *0x48336(%rip)        # 4ddf0 <_ZNSt7__cxx1112basic_stringIcSt11char_traitsIcESaIcEEpLEPKc@GLIBCXX_3.4.21>
    5aba:	66 0f 1f 44 00 00    	nopw   0x0(%rax,%rax,1)

0000000000005ac0 <_ZNKSt7__cxx1118basic_stringstreamIcSt11char_traitsIcESaIcEE3strEv@plt>:
    5ac0:	f3 0f 1e fa          	endbr64
    5ac4:	ff 25 2e 83 04 00    	jmp    *0x4832e(%rip)        # 4ddf8 <_ZNKSt7__cxx1118basic_stringstreamIcSt11char_traitsIcESaIcEE3strEv@GLIBCXX_3.4.21>
    5aca:	66 0f 1f 44 00 00    	nopw   0x0(%rax,%rax,1)

0000000000005ad0 <_ZStlsISt11char_traitsIcEERSt13basic_ostreamIcT_ES5_PKc@plt>:
    5ad0:	f3 0f 1e fa          	endbr64
    5ad4:	ff 25 26 83 04 00    	jmp    *0x48326(%rip)        # 4de00 <_ZStlsISt11char_traitsIcEERSt13basic_ostreamIcT_ES5_PKc@GLIBCXX_3.4>
    5ada:	66 0f 1f 44 00 00    	nopw   0x0(%rax,%rax,1)

0000000000005ae0 <_Znwm@plt>:
    5ae0:	f3 0f 1e fa          	endbr64
    5ae4:	ff 25 1e 83 04 00    	jmp    *0x4831e(%rip)        # 4de08 <_Znwm@GLIBCXX_3.4>
    5aea:	66 0f 1f 44 00 00    	nopw   0x0(%rax,%rax,1)

0000000000005af0 <_ZdlPvm@plt>:
    5af0:	f3 0f 1e fa          	endbr64
    5af4:	ff 25 16 83 04 00    	jmp    *0x48316(%rip)        # 4de10 <_ZdlPvm@CXXABI_1.3.9>
    5afa:	66 0f 1f 44 00 00    	nopw   0x0(%rax,%rax,1)

0000000000005b00 <_ZNSt7__cxx1112basic_stringIcSt11char_traitsIcESaIcEE13_S_copy_charsEPcN9__gnu_cxx17__normal_iteratorIS5_S4_EES8_@plt>:
    5b00:	f3 0f 1e fa          	endbr64
    5b04:	ff 25 0e 83 04 00    	jmp    *0x4830e(%rip)        # 4de18 <_ZNSt7__cxx1112basic_stringIcSt11char_traitsIcESaIcEE13_S_copy_charsEPcN9__gnu_cxx17__normal_iteratorIS5_S4_EES8_@GLIBCXX_3.4.21>
    5b0a:	66 0f 1f 44 00 00    	nopw   0x0(%rax,%rax,1)

0000000000005b10 <_ZSt18_Rb_tree_decrementPSt18_Rb_tree_node_base@plt>:
    5b10:	f3 0f 1e fa          	endbr64
    5b14:	ff 25 06 83 04 00    	jmp    *0x48306(%rip)        # 4de20 <_ZSt18_Rb_tree_decrementPSt18_Rb_tree_node_base@GLIBCXX_3.4>
    5b1a:	66 0f 1f 44 00 00    	nopw   0x0(%rax,%rax,1)

0000000000005b20 <_ZNSt7__cxx1112basic_stringIcSt11char_traitsIcESaIcEE12_Alloc_hiderC1EPcRKS3_@plt>:
    5b20:	f3 0f 1e fa          	endbr64
    5b24:	ff 25 fe 82 04 00    	jmp    *0x482fe(%rip)        # 4de28 <_ZNSt7__cxx1112basic_stringIcSt11char_traitsIcESaIcEE12_Alloc_hiderC1EPcRKS3_@GLIBCXX_3.4.21>
    5b2a:	66 0f 1f 44 00 00    	nopw   0x0(%rax,%rax,1)

0000000000005b30 <_ZNSt7__cxx1112basic_stringIcSt11char_traitsIcESaIcEE6appendEmc@plt>:
    5b30:	f3 0f 1e fa          	endbr64
    5b34:	ff 25 f6 82 04 00    	jmp    *0x482f6(%rip)        # 4de30 <_ZNSt7__cxx1112basic_stringIcSt11char_traitsIcESaIcEE6appendEmc@GLIBCXX_3.4.21>
    5b3a:	66 0f 1f 44 00 00    	nopw   0x0(%rax,%rax,1)

0000000000005b40 <_ZNKSt7__cxx1112basic_stringIcSt11char_traitsIcESaIcEE7_M_dataEv@plt>:
    5b40:	f3 0f 1e fa          	endbr64
    5b44:	ff 25 ee 82 04 00    	jmp    *0x482ee(%rip)        # 4de38 <_ZNKSt7__cxx1112basic_stringIcSt11char_traitsIcESaIcEE7_M_dataEv@GLIBCXX_3.4.21>
    5b4a:	66 0f 1f 44 00 00    	nopw   0x0(%rax,%rax,1)

0000000000005b50 <_ZNKSt7__cxx1112basic_stringIcSt11char_traitsIcESaIcEEixEm@plt>:
    5b50:	f3 0f 1e fa          	endbr64
    5b54:	ff 25 e6 82 04 00    	jmp    *0x482e6(%rip)        # 4de40 <_ZNKSt7__cxx1112basic_stringIcSt11char_traitsIcESaIcEEixEm@GLIBCXX_3.4.21>
    5b5a:	66 0f 1f 44 00 00    	nopw   0x0(%rax,%rax,1)

0000000000005b60 <_ZNSt6localeaSERKS_@plt>:
    5b60:	f3 0f 1e fa          	endbr64
    5b64:	ff 25 de 82 04 00    	jmp    *0x482de(%rip)        # 4de48 <_ZNSt6localeaSERKS_@GLIBCXX_3.4>
    5b6a:	66 0f 1f 44 00 00    	nopw   0x0(%rax,%rax,1)

0000000000005b70 <_ZNSt7__cxx1112basic_stringIcSt11char_traitsIcESaIcEE13_S_copy_charsEPcPKcS7_@plt>:
    5b70:	f3 0f 1e fa          	endbr64
    5b74:	ff 25 d6 82 04 00    	jmp    *0x482d6(%rip)        # 4de50 <_ZNSt7__cxx1112basic_stringIcSt11char_traitsIcESaIcEE13_S_copy_charsEPcPKcS7_@GLIBCXX_3.4.21>
    5b7a:	66 0f 1f 44 00 00    	nopw   0x0(%rax,%rax,1)

0000000000005b80 <__stack_chk_fail@plt>:
    5b80:	f3 0f 1e fa          	endbr64
    5b84:	ff 25 ce 82 04 00    	jmp    *0x482ce(%rip)        # 4de58 <__stack_chk_fail@GLIBC_2.4>
    5b8a:	66 0f 1f 44 00 00    	nopw   0x0(%rax,%rax,1)

0000000000005b90 <__dynamic_cast@plt>:
    5b90:	f3 0f 1e fa          	endbr64
    5b94:	ff 25 c6 82 04 00    	jmp    *0x482c6(%rip)        # 4de60 <__dynamic_cast@CXXABI_1.3>
    5b9a:	66 0f 1f 44 00 00    	nopw   0x0(%rax,%rax,1)

0000000000005ba0 <_ZNKSt5ctypeIcE13_M_widen_initEv@plt>:
    5ba0:	f3 0f 1e fa          	endbr64
    5ba4:	ff 25 be 82 04 00    	jmp    *0x482be(%rip)        # 4de68 <_ZNKSt5ctypeIcE13_M_widen_initEv@GLIBCXX_3.4.11>
    5baa:	66 0f 1f 44 00 00    	nopw   0x0(%rax,%rax,1)

0000000000005bb0 <_ZSt18_Rb_tree_incrementPKSt18_Rb_tree_node_base@plt>:
    5bb0:	f3 0f 1e fa          	endbr64
    5bb4:	ff 25 b6 82 04 00    	jmp    *0x482b6(%rip)        # 4de70 <_ZSt18_Rb_tree_incrementPKSt18_Rb_tree_node_base@GLIBCXX_3.4>
    5bba:	66 0f 1f 44 00 00    	nopw   0x0(%rax,%rax,1)

0000000000005bc0 <_ZNSt7__cxx1112basic_stringIcSt11char_traitsIcESaIcEE12_M_constructEmc@plt>:
    5bc0:	f3 0f 1e fa          	endbr64
    5bc4:	ff 25 ae 82 04 00    	jmp    *0x482ae(%rip)        # 4de78 <_ZNSt7__cxx1112basic_stringIcSt11char_traitsIcESaIcEE12_M_constructEmc@GLIBCXX_3.4.21>
    5bca:	66 0f 1f 44 00 00    	nopw   0x0(%rax,%rax,1)

0000000000005bd0 <_ZNSt7__cxx1112basic_stringIcSt11char_traitsIcESaIcEEaSEOS4_@plt>:
    5bd0:	f3 0f 1e fa          	endbr64
    5bd4:	ff 25 a6 82 04 00    	jmp    *0x482a6(%rip)        # 4de80 <_ZNSt7__cxx1112basic_stringIcSt11char_traitsIcESaIcEEaSEOS4_@GLIBCXX_3.4.21>
    5bda:	66 0f 1f 44 00 00    	nopw   0x0(%rax,%rax,1)

0000000000005be0 <_ZNSt7__cxx1112basic_stringIcSt11char_traitsIcESaIcEE10_M_disposeEv@plt>:
    5be0:	f3 0f 1e fa          	endbr64
    5be4:	ff 25 9e 82 04 00    	jmp    *0x4829e(%rip)        # 4de88 <_ZNSt7__cxx1112basic_stringIcSt11char_traitsIcESaIcEE10_M_disposeEv@GLIBCXX_3.4.21>
    5bea:	66 0f 1f 44 00 00    	nopw   0x0(%rax,%rax,1)

0000000000005bf0 <_ZNKSt9basic_iosIcSt11char_traitsIcEEcvbEv@plt>:
    5bf0:	f3 0f 1e fa          	endbr64
    5bf4:	ff 25 96 82 04 00    	jmp    *0x48296(%rip)        # 4de90 <_ZNKSt9basic_iosIcSt11char_traitsIcEEcvbEv@GLIBCXX_3.4.21>
    5bfa:	66 0f 1f 44 00 00    	nopw   0x0(%rax,%rax,1)

0000000000005c00 <_ZSt16__throw_bad_castv@plt>:
    5c00:	f3 0f 1e fa          	endbr64
    5c04:	ff 25 8e 82 04 00    	jmp    *0x4828e(%rip)        # 4de98 <_ZSt16__throw_bad_castv@GLIBCXX_3.4>
    5c0a:	66 0f 1f 44 00 00    	nopw   0x0(%rax,%rax,1)

0000000000005c10 <_ZNSt7__cxx1112basic_stringIcSt11char_traitsIcESaIcEEpLERKS4_@plt>:
    5c10:	f3 0f 1e fa          	endbr64
    5c14:	ff 25 86 82 04 00    	jmp    *0x48286(%rip)        # 4dea0 <_ZNSt7__cxx1112basic_stringIcSt11char_traitsIcESaIcEEpLERKS4_@GLIBCXX_3.4.21>
    5c1a:	66 0f 1f 44 00 00    	nopw   0x0(%rax,%rax,1)

0000000000005c20 <_ZdaPv@plt>:
    5c20:	f3 0f 1e fa          	endbr64
    5c24:	ff 25 7e 82 04 00    	jmp    *0x4827e(%rip)        # 4dea8 <_ZdaPv@GLIBCXX_3.4>
    5c2a:	66 0f 1f 44 00 00    	nopw   0x0(%rax,%rax,1)

0000000000005c30 <_ZNKSt7__cxx1112basic_stringIcSt11char_traitsIcESaIcEE4dataEv@plt>:
    5c30:	f3 0f 1e fa          	endbr64
    5c34:	ff 25 76 82 04 00    	jmp    *0x48276(%rip)        # 4deb0 <_ZNKSt7__cxx1112basic_stringIcSt11char_traitsIcESaIcEE4dataEv@GLIBCXX_3.4.21>
    5c3a:	66 0f 1f 44 00 00    	nopw   0x0(%rax,%rax,1)

0000000000005c40 <_ZNSt7__cxx1112basic_stringIcSt11char_traitsIcESaIcEE5clearEv@plt>:
    5c40:	f3 0f 1e fa          	endbr64
    5c44:	ff 25 6e 82 04 00    	jmp    *0x4826e(%rip)        # 4deb8 <_ZNSt7__cxx1112basic_stringIcSt11char_traitsIcESaIcEE5clearEv@GLIBCXX_3.4.21>
    5c4a:	66 0f 1f 44 00 00    	nopw   0x0(%rax,%rax,1)

0000000000005c50 <_ZNSt7__cxx1112basic_stringIcSt11char_traitsIcESaIcEEaSEPKc@plt>:
    5c50:	f3 0f 1e fa          	endbr64
    5c54:	ff 25 66 82 04 00    	jmp    *0x48266(%rip)        # 4dec0 <_ZNSt7__cxx1112basic_stringIcSt11char_traitsIcESaIcEEaSEPKc@GLIBCXX_3.4.21>
    5c5a:	66 0f 1f 44 00 00    	nopw   0x0(%rax,%rax,1)

0000000000005c60 <_ZNSt7__cxx1112basic_stringIcSt11char_traitsIcESaIcEEC1Ev@plt>:
    5c60:	f3 0f 1e fa          	endbr64
    5c64:	ff 25 5e 82 04 00    	jmp    *0x4825e(%rip)        # 4dec8 <_ZNSt7__cxx1112basic_stringIcSt11char_traitsIcESaIcEEC1Ev@GLIBCXX_3.4.21>
    5c6a:	66 0f 1f 44 00 00    	nopw   0x0(%rax,%rax,1)

0000000000005c70 <strcmp@plt>:
    5c70:	f3 0f 1e fa          	endbr64
    5c74:	ff 25 56 82 04 00    	jmp    *0x48256(%rip)        # 4ded0 <strcmp@GLIBC_2.2.5>
    5c7a:	66 0f 1f 44 00 00    	nopw   0x0(%rax,%rax,1)

0000000000005c80 <_ZNSt6localeD1Ev@plt>:
    5c80:	f3 0f 1e fa          	endbr64
    5c84:	ff 25 4e 82 04 00    	jmp    *0x4824e(%rip)        # 4ded8 <_ZNSt6localeD1Ev@GLIBCXX_3.4>
    5c8a:	66 0f 1f 44 00 00    	nopw   0x0(%rax,%rax,1)

0000000000005c90 <pclose@plt>:
    5c90:	f3 0f 1e fa          	endbr64
    5c94:	ff 25 46 82 04 00    	jmp    *0x48246(%rip)        # 4dee0 <pclose@GLIBC_2.2.5>
    5c9a:	66 0f 1f 44 00 00    	nopw   0x0(%rax,%rax,1)

0000000000005ca0 <__cxa_rethrow@plt>:
    5ca0:	f3 0f 1e fa          	endbr64
    5ca4:	ff 25 3e 82 04 00    	jmp    *0x4823e(%rip)        # 4dee8 <__cxa_rethrow@CXXABI_1.3>
    5caa:	66 0f 1f 44 00 00    	nopw   0x0(%rax,%rax,1)

0000000000005cb0 <_ZNSt14basic_ofstreamIcSt11char_traitsIcEED1Ev@plt>:
    5cb0:	f3 0f 1e fa          	endbr64
    5cb4:	ff 25 36 82 04 00    	jmp    *0x48236(%rip)        # 4def0 <_ZNSt14basic_ofstreamIcSt11char_traitsIcEED1Ev@GLIBCXX_3.4>
    5cba:	66 0f 1f 44 00 00    	nopw   0x0(%rax,%rax,1)

0000000000005cc0 <_ZNSt15basic_streambufIcSt11char_traitsIcEE5sgetcEv@plt>:
    5cc0:	f3 0f 1e fa          	endbr64
    5cc4:	ff 25 2e 82 04 00    	jmp    *0x4822e(%rip)        # 4def8 <_ZNSt15basic_streambufIcSt11char_traitsIcEE5sgetcEv@GLIBCXX_3.4>
    5cca:	66 0f 1f 44 00 00    	nopw   0x0(%rax,%rax,1)

0000000000005cd0 <_ZNSt7__cxx1112basic_stringIcSt11char_traitsIcESaIcEE7reserveEm@plt>:
    5cd0:	f3 0f 1e fa          	endbr64
    5cd4:	ff 25 26 82 04 00    	jmp    *0x48226(%rip)        # 4df00 <_ZNSt7__cxx1112basic_stringIcSt11char_traitsIcESaIcEE7reserveEm@GLIBCXX_3.4.21>
    5cda:	66 0f 1f 44 00 00    	nopw   0x0(%rax,%rax,1)

0000000000005ce0 <fgets@plt>:
    5ce0:	f3 0f 1e fa          	endbr64
    5ce4:	ff 25 1e 82 04 00    	jmp    *0x4821e(%rip)        # 4df08 <fgets@GLIBC_2.2.5>
    5cea:	66 0f 1f 44 00 00    	nopw   0x0(%rax,%rax,1)

0000000000005cf0 <_ZNSt7__cxx1118basic_stringstreamIcSt11char_traitsIcESaIcEEC1ERKNS_12basic_stringIcS2_S3_EESt13_Ios_Openmode@plt>:
    5cf0:	f3 0f 1e fa          	endbr64
    5cf4:	ff 25 16 82 04 00    	jmp    *0x48216(%rip)        # 4df10 <_ZNSt7__cxx1118basic_stringstreamIcSt11char_traitsIcESaIcEEC1ERKNS_12basic_stringIcS2_S3_EESt13_Ios_Openmode@GLIBCXX_3.4.21>
    5cfa:	66 0f 1f 44 00 00    	nopw   0x0(%rax,%rax,1)

0000000000005d00 <_ZNSt14basic_ifstreamIcSt11char_traitsIcEEC1ERKNSt7__cxx1112basic_stringIcS1_SaIcEEESt13_Ios_Openmode@plt>:
    5d00:	f3 0f 1e fa          	endbr64
    5d04:	ff 25 0e 82 04 00    	jmp    *0x4820e(%rip)        # 4df18 <_ZNSt14basic_ifstreamIcSt11char_traitsIcEEC1ERKNSt7__cxx1112basic_stringIcS1_SaIcEEESt13_Ios_Openmode@GLIBCXX_3.4.21>
    5d0a:	66 0f 1f 44 00 00    	nopw   0x0(%rax,%rax,1)

0000000000005d10 <memmove@plt>:
    5d10:	f3 0f 1e fa          	endbr64
    5d14:	ff 25 06 82 04 00    	jmp    *0x48206(%rip)        # 4df20 <memmove@GLIBC_2.2.5>
    5d1a:	66 0f 1f 44 00 00    	nopw   0x0(%rax,%rax,1)

0000000000005d20 <__cxa_end_catch@plt>:
    5d20:	f3 0f 1e fa          	endbr64
    5d24:	ff 25 fe 81 04 00    	jmp    *0x481fe(%rip)        # 4df28 <__cxa_end_catch@CXXABI_1.3>
    5d2a:	66 0f 1f 44 00 00    	nopw   0x0(%rax,%rax,1)

0000000000005d30 <_ZNKSt7__cxx1112basic_stringIcSt11char_traitsIcESaIcEE5emptyEv@plt>:
    5d30:	f3 0f 1e fa          	endbr64
    5d34:	ff 25 f6 81 04 00    	jmp    *0x481f6(%rip)        # 4df30 <_ZNKSt7__cxx1112basic_stringIcSt11char_traitsIcESaIcEE5emptyEv@GLIBCXX_3.4.21>
    5d3a:	66 0f 1f 44 00 00    	nopw   0x0(%rax,%rax,1)

0000000000005d40 <_ZNSirsEPFRSt8ios_baseS0_E@plt>:
    5d40:	f3 0f 1e fa          	endbr64
    5d44:	ff 25 ee 81 04 00    	jmp    *0x481ee(%rip)        # 4df38 <_ZNSirsEPFRSt8ios_baseS0_E@GLIBCXX_3.4>
    5d4a:	66 0f 1f 44 00 00    	nopw   0x0(%rax,%rax,1)

0000000000005d50 <_ZNSt7__cxx1119basic_istringstreamIcSt11char_traitsIcESaIcEEC1ERKNS_12basic_stringIcS2_S3_EESt13_Ios_Openmode@plt>:
    5d50:	f3 0f 1e fa          	endbr64
    5d54:	ff 25 e6 81 04 00    	jmp    *0x481e6(%rip)        # 4df40 <_ZNSt7__cxx1119basic_istringstreamIcSt11char_traitsIcESaIcEEC1ERKNS_12basic_stringIcS2_S3_EESt13_Ios_Openmode@GLIBCXX_3.4.21>
    5d5a:	66 0f 1f 44 00 00    	nopw   0x0(%rax,%rax,1)

0000000000005d60 <__cxa_throw@plt>:
    5d60:	f3 0f 1e fa          	endbr64
    5d64:	ff 25 de 81 04 00    	jmp    *0x481de(%rip)        # 4df48 <__cxa_throw@CXXABI_1.3>
    5d6a:	66 0f 1f 44 00 00    	nopw   0x0(%rax,%rax,1)

0000000000005d70 <_ZNKSt7__cxx117collateIcE9transformEPKcS3_@plt>:
    5d70:	f3 0f 1e fa          	endbr64
    5d74:	ff 25 d6 81 04 00    	jmp    *0x481d6(%rip)        # 4df50 <_ZNKSt7__cxx117collateIcE9transformEPKcS3_@GLIBCXX_3.4.21>
    5d7a:	66 0f 1f 44 00 00    	nopw   0x0(%rax,%rax,1)

0000000000005d80 <_ZNSt7__cxx1112basic_stringIcSt11char_traitsIcESaIcEEC1ERKS3_@plt>:
    5d80:	f3 0f 1e fa          	endbr64
    5d84:	ff 25 ce 81 04 00    	jmp    *0x481ce(%rip)        # 4df58 <_ZNSt7__cxx1112basic_stringIcSt11char_traitsIcESaIcEEC1ERKS3_@GLIBCXX_3.4.21>
    5d8a:	66 0f 1f 44 00 00    	nopw   0x0(%rax,%rax,1)

0000000000005d90 <_ZNSolsEi@plt>:
    5d90:	f3 0f 1e fa          	endbr64
    5d94:	ff 25 c6 81 04 00    	jmp    *0x481c6(%rip)        # 4df60 <_ZNSolsEi@GLIBCXX_3.4>
    5d9a:	66 0f 1f 44 00 00    	nopw   0x0(%rax,%rax,1)

0000000000005da0 <_ZNSt7__cxx1112basic_stringIcSt11char_traitsIcESaIcEE7_S_copyEPcPKcm@plt>:
    5da0:	f3 0f 1e fa          	endbr64
    5da4:	ff 25 be 81 04 00    	jmp    *0x481be(%rip)        # 4df68 <_ZNSt7__cxx1112basic_stringIcSt11char_traitsIcESaIcEE7_S_copyEPcPKcm@GLIBCXX_3.4.21>
    5daa:	66 0f 1f 44 00 00    	nopw   0x0(%rax,%rax,1)

0000000000005db0 <_ZNSt7__cxx1112basic_stringIcSt11char_traitsIcESaIcEE6assignEmc@plt>:
    5db0:	f3 0f 1e fa          	endbr64
    5db4:	ff 25 b6 81 04 00    	jmp    *0x481b6(%rip)        # 4df70 <_ZNSt7__cxx1112basic_stringIcSt11char_traitsIcESaIcEE6assignEmc@GLIBCXX_3.4.21>
    5dba:	66 0f 1f 44 00 00    	nopw   0x0(%rax,%rax,1)

0000000000005dc0 <_Unwind_Resume@plt>:
    5dc0:	f3 0f 1e fa          	endbr64
    5dc4:	ff 25 ae 81 04 00    	jmp    *0x481ae(%rip)        # 4df78 <_Unwind_Resume@GCC_3.0>
    5dca:	66 0f 1f 44 00 00    	nopw   0x0(%rax,%rax,1)

0000000000005dd0 <_ZNSt7__cxx1112basic_stringIcSt11char_traitsIcESaIcEE9_M_createERmm@plt>:
    5dd0:	f3 0f 1e fa          	endbr64
    5dd4:	ff 25 a6 81 04 00    	jmp    *0x481a6(%rip)        # 4df80 <_ZNSt7__cxx1112basic_stringIcSt11char_traitsIcESaIcEE9_M_createERmm@GLIBCXX_3.4.21>
    5dda:	66 0f 1f 44 00 00    	nopw   0x0(%rax,%rax,1)

0000000000005de0 <__cxa_guard_acquire@plt>:
    5de0:	f3 0f 1e fa          	endbr64
    5de4:	ff 25 9e 81 04 00    	jmp    *0x4819e(%rip)        # 4df88 <__cxa_guard_acquire@CXXABI_1.3>
    5dea:	66 0f 1f 44 00 00    	nopw   0x0(%rax,%rax,1)

0000000000005df0 <_ZNKSt7__cxx1112basic_stringIcSt11char_traitsIcESaIcEE3endEv@plt>:
    5df0:	f3 0f 1e fa          	endbr64
    5df4:	ff 25 96 81 04 00    	jmp    *0x48196(%rip)        # 4df90 <_ZNKSt7__cxx1112basic_stringIcSt11char_traitsIcESaIcEE3endEv@GLIBCXX_3.4.21>
    5dfa:	66 0f 1f 44 00 00    	nopw   0x0(%rax,%rax,1)

0000000000005e00 <_ZNSt13runtime_errorC2EPKc@plt>:
    5e00:	f3 0f 1e fa          	endbr64
    5e04:	ff 25 8e 81 04 00    	jmp    *0x4818e(%rip)        # 4df98 <_ZNSt13runtime_errorC2EPKc@GLIBCXX_3.4.21>
    5e0a:	66 0f 1f 44 00 00    	nopw   0x0(%rax,%rax,1)

0000000000005e10 <_ZNSt14basic_ofstreamIcSt11char_traitsIcEEC1ERKNSt7__cxx1112basic_stringIcS1_SaIcEEESt13_Ios_Openmode@plt>:
    5e10:	f3 0f 1e fa          	endbr64
    5e14:	ff 25 86 81 04 00    	jmp    *0x48186(%rip)        # 4dfa0 <_ZNSt14basic_ofstreamIcSt11char_traitsIcEEC1ERKNSt7__cxx1112basic_stringIcS1_SaIcEEESt13_Ios_Openmode@GLIBCXX_3.4.21>
    5e1a:	66 0f 1f 44 00 00    	nopw   0x0(%rax,%rax,1)

0000000000005e20 <_ZNSt7__cxx1112basic_stringIcSt11char_traitsIcESaIcEE11_M_capacityEm@plt>:
    5e20:	f3 0f 1e fa          	endbr64
    5e24:	ff 25 7e 81 04 00    	jmp    *0x4817e(%rip)        # 4dfa8 <_ZNSt7__cxx1112basic_stringIcSt11char_traitsIcESaIcEE11_M_capacityEm@GLIBCXX_3.4.21>
    5e2a:	66 0f 1f 44 00 00    	nopw   0x0(%rax,%rax,1)

0000000000005e30 <_ZNKSt7__cxx1112basic_stringIcSt11char_traitsIcESaIcEE4findEPKcm@plt>:
    5e30:	f3 0f 1e fa          	endbr64
    5e34:	ff 25 76 81 04 00    	jmp    *0x48176(%rip)        # 4dfb0 <_ZNKSt7__cxx1112basic_stringIcSt11char_traitsIcESaIcEE4findEPKcm@GLIBCXX_3.4.21>
    5e3a:	66 0f 1f 44 00 00    	nopw   0x0(%rax,%rax,1)

0000000000005e40 <_ZNSt7__cxx1112basic_stringIcSt11char_traitsIcESaIcEEixEm@plt>:
    5e40:	f3 0f 1e fa          	endbr64
    5e44:	ff 25 6e 81 04 00    	jmp    *0x4816e(%rip)        # 4dfb8 <_ZNSt7__cxx1112basic_stringIcSt11char_traitsIcESaIcEEixEm@GLIBCXX_3.4.21>
    5e4a:	66 0f 1f 44 00 00    	nopw   0x0(%rax,%rax,1)

0000000000005e50 <_ZNSt6localeC1Ev@plt>:
    5e50:	f3 0f 1e fa          	endbr64
    5e54:	ff 25 66 81 04 00    	jmp    *0x48166(%rip)        # 4dfc0 <_ZNSt6localeC1Ev@GLIBCXX_3.4>
    5e5a:	66 0f 1f 44 00 00    	nopw   0x0(%rax,%rax,1)

Disassembly of section .text:

0000000000005e60 <_start>:
    5e60:	f3 0f 1e fa          	endbr64
    5e64:	31 ed                	xor    %ebp,%ebp
    5e66:	49 89 d1             	mov    %rdx,%r9
    5e69:	5e                   	pop    %rsi
    5e6a:	48 89 e2             	mov    %rsp,%rdx
    5e6d:	48 83 e4 f0          	and    $0xfffffffffffffff0,%rsp
    5e71:	50                   	push   %rax
    5e72:	54                   	push   %rsp
    5e73:	45 31 c0             	xor    %r8d,%r8d
    5e76:	31 c9                	xor    %ecx,%ecx
    5e78:	48 8d 3d ca 00 00 00 	lea    0xca(%rip),%rdi        # 5f49 <main>
    5e7f:	ff 15 4b 81 04 00    	call   *0x4814b(%rip)        # 4dfd0 <__libc_start_main@GLIBC_2.34>
    5e85:	f4                   	hlt
    5e86:	66 2e 0f 1f 84 00 00 	cs nopw 0x0(%rax,%rax,1)
    5e8d:	00 00 00 

0000000000005e90 <deregister_tm_clones>:
    5e90:	48 8d 3d 89 85 04 00 	lea    0x48589(%rip),%rdi        # 4e420 <__TMC_END__>
    5e97:	48 8d 05 82 85 04 00 	lea    0x48582(%rip),%rax        # 4e420 <__TMC_END__>
    5e9e:	48 39 f8             	cmp    %rdi,%rax
    5ea1:	74 15                	je     5eb8 <deregister_tm_clones+0x28>
    5ea3:	48 8b 05 36 81 04 00 	mov    0x48136(%rip),%rax        # 4dfe0 <_ITM_deregisterTMCloneTable@Base>
    5eaa:	48 85 c0             	test   %rax,%rax
    5ead:	74 09                	je     5eb8 <deregister_tm_clones+0x28>
    5eaf:	ff e0                	jmp    *%rax
    5eb1:	0f 1f 80 00 00 00 00 	nopl   0x0(%rax)
    5eb8:	c3                   	ret
    5eb9:	0f 1f 80 00 00 00 00 	nopl   0x0(%rax)

0000000000005ec0 <register_tm_clones>:
    5ec0:	48 8d 3d 59 85 04 00 	lea    0x48559(%rip),%rdi        # 4e420 <__TMC_END__>
    5ec7:	48 8d 35 52 85 04 00 	lea    0x48552(%rip),%rsi        # 4e420 <__TMC_END__>
    5ece:	48 29 fe             	sub    %rdi,%rsi
    5ed1:	48 89 f0             	mov    %rsi,%rax
    5ed4:	48 c1 ee 3f          	shr    $0x3f,%rsi
    5ed8:	48 c1 f8 03          	sar    $0x3,%rax
    5edc:	48 01 c6             	add    %rax,%rsi
    5edf:	48 d1 fe             	sar    $1,%rsi
    5ee2:	74 14                	je     5ef8 <register_tm_clones+0x38>
    5ee4:	48 8b 05 05 81 04 00 	mov    0x48105(%rip),%rax        # 4dff0 <_ITM_registerTMCloneTable@Base>
    5eeb:	48 85 c0             	test   %rax,%rax
    5eee:	74 08                	je     5ef8 <register_tm_clones+0x38>
    5ef0:	ff e0                	jmp    *%rax
    5ef2:	66 0f 1f 44 00 00    	nopw   0x0(%rax,%rax,1)
    5ef8:	c3                   	ret
    5ef9:	0f 1f 80 00 00 00 00 	nopl   0x0(%rax)

0000000000005f00 <__do_global_dtors_aux>:
    5f00:	f3 0f 1e fa          	endbr64
    5f04:	80 3d e5 87 04 00 00 	cmpb   $0x0,0x487e5(%rip)        # 4e6f0 <completed.0>
    5f0b:	75 2b                	jne    5f38 <__do_global_dtors_aux+0x38>
    5f0d:	55                   	push   %rbp
    5f0e:	48 83 3d b2 80 04 00 	cmpq   $0x0,0x480b2(%rip)        # 4dfc8 <__cxa_finalize@GLIBC_2.2.5>
    5f15:	00 
    5f16:	48 89 e5             	mov    %rsp,%rbp
    5f19:	74 0c                	je     5f27 <__do_global_dtors_aux+0x27>
    5f1b:	48 8b 3d e6 80 04 00 	mov    0x480e6(%rip),%rdi        # 4e008 <__dso_handle>
    5f22:	e8 19 f8 ff ff       	call   5740 <__cxa_finalize@plt>
    5f27:	e8 64 ff ff ff       	call   5e90 <deregister_tm_clones>
    5f2c:	c6 05 bd 87 04 00 01 	movb   $0x1,0x487bd(%rip)        # 4e6f0 <completed.0>
    5f33:	5d                   	pop    %rbp
    5f34:	c3                   	ret
    5f35:	0f 1f 00             	nopl   (%rax)
    5f38:	c3                   	ret
    5f39:	0f 1f 80 00 00 00 00 	nopl   0x0(%rax)

0000000000005f40 <frame_dummy>:
    5f40:	f3 0f 1e fa          	endbr64
    5f44:	e9 77 ff ff ff       	jmp    5ec0 <register_tm_clones>

0000000000005f49 <main>:
    5f49:	f3 0f 1e fa          	endbr64
    5f4d:	55                   	push   %rbp
    5f4e:	48 89 e5             	mov    %rsp,%rbp
    5f51:	41 54                	push   %r12
    5f53:	53                   	push   %rbx
    5f54:	48 81 ec 00 10 00 00 	sub    $0x1000,%rsp
    5f5b:	48 83 0c 24 00       	orq    $0x0,(%rsp)
    5f60:	48 81 ec 40 07 00 00 	sub    $0x740,%rsp
    5f67:	89 bd bc e8 ff ff    	mov    %edi,-0x1744(%rbp)
    5f6d:	48 89 b5 b0 e8 ff ff 	mov    %rsi,-0x1750(%rbp)
    5f74:	64 48 8b 04 25 28 00 	mov    %fs:0x28,%rax
    5f7b:	00 00 
    5f7d:	48 89 45 e8          	mov    %rax,-0x18(%rbp)
    5f81:	31 c0                	xor    %eax,%eax
    5f83:	83 bd bc e8 ff ff 01 	cmpl   $0x1,-0x1744(%rbp)
    5f8a:	7f 23                	jg     5faf <main+0x66>
    5f8c:	48 8d 05 75 10 03 00 	lea    0x31075(%rip),%rax        # 37008 <_IO_stdin_used+0x8>
    5f93:	48 89 c6             	mov    %rax,%rsi
    5f96:	48 8d 05 43 86 04 00 	lea    0x48643(%rip),%rax        # 4e5e0 <_ZSt4cerr@GLIBCXX_3.4>
    5f9d:	48 89 c7             	mov    %rax,%rdi
    5fa0:	e8 2b fb ff ff       	call   5ad0 <_ZStlsISt11char_traitsIcEERSt13basic_ostreamIcT_ES5_PKc@plt>
    5fa5:	bb 01 00 00 00       	mov    $0x1,%ebx
    5faa:	e9 fd 07 00 00       	jmp    67ac <main+0x863>
    5faf:	48 8d 85 10 e9 ff ff 	lea    -0x16f0(%rbp),%rax
    5fb6:	48 89 c7             	mov    %rax,%rdi
    5fb9:	e8 a2 fc ff ff       	call   5c60 <_ZNSt7__cxx1112basic_stringIcSt11char_traitsIcESaIcEEC1Ev@plt>
    5fbe:	48 8d 85 30 e9 ff ff 	lea    -0x16d0(%rbp),%rax
    5fc5:	48 89 c7             	mov    %rax,%rdi
    5fc8:	e8 93 fc ff ff       	call   5c60 <_ZNSt7__cxx1112basic_stringIcSt11char_traitsIcESaIcEEC1Ev@plt>
    5fcd:	c6 85 c6 e8 ff ff 00 	movb   $0x0,-0x173a(%rbp)
    5fd4:	c6 85 c7 e8 ff ff 00 	movb   $0x0,-0x1739(%rbp)
    5fdb:	48 8b 85 b0 e8 ff ff 	mov    -0x1750(%rbp),%rax
    5fe2:	48 83 c0 08          	add    $0x8,%rax
    5fe6:	48 8b 10             	mov    (%rax),%rdx
    5fe9:	48 8d 85 10 e9 ff ff 	lea    -0x16f0(%rbp),%rax
    5ff0:	48 89 d6             	mov    %rdx,%rsi
    5ff3:	48 89 c7             	mov    %rax,%rdi
    5ff6:	e8 55 fc ff ff       	call   5c50 <_ZNSt7__cxx1112basic_stringIcSt11char_traitsIcESaIcEEaSEPKc@plt>
    5ffb:	c7 85 c8 e8 ff ff 02 	movl   $0x2,-0x1738(%rbp)
    6002:	00 00 00 
    6005:	e9 6c 02 00 00       	jmp    6276 <main+0x32d>
    600a:	48 8d 85 00 e9 ff ff 	lea    -0x1700(%rbp),%rax
    6011:	48 89 85 d8 e8 ff ff 	mov    %rax,-0x1728(%rbp)
    6018:	90                   	nop
    6019:	90                   	nop
    601a:	8b 85 c8 e8 ff ff    	mov    -0x1738(%rbp),%eax
    6020:	48 98                	cltq
    6022:	48 8d 14 c5 00 00 00 	lea    0x0(,%rax,8),%rdx
    6029:	00 
    602a:	48 8b 85 b0 e8 ff ff 	mov    -0x1750(%rbp),%rax
    6031:	48 01 d0             	add    %rdx,%rax
    6034:	48 8b 08             	mov    (%rax),%rcx
    6037:	48 8d 95 00 e9 ff ff 	lea    -0x1700(%rbp),%rdx
    603e:	48 8d 85 d0 ed ff ff 	lea    -0x1230(%rbp),%rax
    6045:	48 89 ce             	mov    %rcx,%rsi
    6048:	48 89 c7             	mov    %rax,%rdi
    604b:	e8 4c 0b 00 00       	call   6b9c <_ZNSt7__cxx1112basic_stringIcSt11char_traitsIcESaIcEEC1IS3_EEPKcRKS3_>
    6050:	48 8d 85 00 e9 ff ff 	lea    -0x1700(%rbp),%rax
    6057:	48 89 c7             	mov    %rax,%rdi
    605a:	e8 d3 0f 00 00       	call   7032 <_ZNSt15__new_allocatorIcED1Ev>
    605f:	90                   	nop
    6060:	48 8d 85 d0 ed ff ff 	lea    -0x1230(%rbp),%rax
    6067:	48 8d 15 cc 0f 03 00 	lea    0x30fcc(%rip),%rdx        # 3703a <_IO_stdin_used+0x3a>
    606e:	48 89 d6             	mov    %rdx,%rsi
    6071:	48 89 c7             	mov    %rax,%rdi
    6074:	e8 dd 0b 00 00       	call   6c56 <_ZSteqIcSt11char_traitsIcESaIcEEbRKNSt7__cxx1112basic_stringIT_T0_T1_EEPKS5_>
    6079:	84 c0                	test   %al,%al
    607b:	74 18                	je     6095 <main+0x14c>
    607d:	8b 85 c8 e8 ff ff    	mov    -0x1738(%rbp),%eax
    6083:	83 c0 01             	add    $0x1,%eax
    6086:	39 85 bc e8 ff ff    	cmp    %eax,-0x1744(%rbp)
    608c:	7e 07                	jle    6095 <main+0x14c>
    608e:	b8 01 00 00 00       	mov    $0x1,%eax
    6093:	eb 05                	jmp    609a <main+0x151>
    6095:	b8 00 00 00 00       	mov    $0x0,%eax
    609a:	84 c0                	test   %al,%al
    609c:	74 38                	je     60d6 <main+0x18d>
    609e:	48 8b 85 b0 e8 ff ff 	mov    -0x1750(%rbp),%rax
    60a5:	83 85 c8 e8 ff ff 01 	addl   $0x1,-0x1738(%rbp)
    60ac:	8b 95 c8 e8 ff ff    	mov    -0x1738(%rbp),%edx
    60b2:	48 63 d2             	movslq %edx,%rdx
    60b5:	48 c1 e2 03          	shl    $0x3,%rdx
    60b9:	48 01 d0             	add    %rdx,%rax
    60bc:	48 8b 10             	mov    (%rax),%rdx
    60bf:	48 8d 85 30 e9 ff ff 	lea    -0x16d0(%rbp),%rax
    60c6:	48 89 d6             	mov    %rdx,%rsi
    60c9:	48 89 c7             	mov    %rax,%rdi
    60cc:	e8 7f fb ff ff       	call   5c50 <_ZNSt7__cxx1112basic_stringIcSt11char_traitsIcESaIcEEaSEPKc@plt>
    60d1:	e9 7a 01 00 00       	jmp    6250 <main+0x307>
    60d6:	48 8d 85 d0 ed ff ff 	lea    -0x1230(%rbp),%rax
    60dd:	48 8d 15 59 0f 03 00 	lea    0x30f59(%rip),%rdx        # 3703d <_IO_stdin_used+0x3d>
    60e4:	48 89 d6             	mov    %rdx,%rsi
    60e7:	48 89 c7             	mov    %rax,%rdi
    60ea:	e8 67 0b 00 00       	call   6c56 <_ZSteqIcSt11char_traitsIcESaIcEEbRKNSt7__cxx1112basic_stringIT_T0_T1_EEPKS5_>
    60ef:	84 c0                	test   %al,%al
    60f1:	74 0c                	je     60ff <main+0x1b6>
    60f3:	c6 85 c6 e8 ff ff 01 	movb   $0x1,-0x173a(%rbp)
    60fa:	e9 51 01 00 00       	jmp    6250 <main+0x307>
    60ff:	48 8d 85 d0 ed ff ff 	lea    -0x1230(%rbp),%rax
    6106:	48 8d 15 38 0f 03 00 	lea    0x30f38(%rip),%rdx        # 37045 <_IO_stdin_used+0x45>
    610d:	48 89 d6             	mov    %rdx,%rsi
    6110:	48 89 c7             	mov    %rax,%rdi
    6113:	e8 3e 0b 00 00       	call   6c56 <_ZSteqIcSt11char_traitsIcESaIcEEbRKNSt7__cxx1112basic_stringIT_T0_T1_EEPKS5_>
    6118:	84 c0                	test   %al,%al
    611a:	74 0c                	je     6128 <main+0x1df>
    611c:	c6 85 c7 e8 ff ff 01 	movb   $0x1,-0x1739(%rbp)
    6123:	e9 28 01 00 00       	jmp    6250 <main+0x307>
    6128:	48 8d 85 d0 ed ff ff 	lea    -0x1230(%rbp),%rax
    612f:	48 8d 15 17 0f 03 00 	lea    0x30f17(%rip),%rdx        # 3704d <_IO_stdin_used+0x4d>
    6136:	48 89 d6             	mov    %rdx,%rsi
    6139:	48 89 c7             	mov    %rax,%rdi
    613c:	e8 15 0b 00 00       	call   6c56 <_ZSteqIcSt11char_traitsIcESaIcEEbRKNSt7__cxx1112basic_stringIT_T0_T1_EEPKS5_>
    6141:	84 c0                	test   %al,%al
    6143:	75 1d                	jne    6162 <main+0x219>
    6145:	48 8d 85 d0 ed ff ff 	lea    -0x1230(%rbp),%rax
    614c:	48 8d 15 fd 0e 03 00 	lea    0x30efd(%rip),%rdx        # 37050 <_IO_stdin_used+0x50>
    6153:	48 89 d6             	mov    %rdx,%rsi
    6156:	48 89 c7             	mov    %rax,%rdi
    6159:	e8 f8 0a 00 00       	call   6c56 <_ZSteqIcSt11char_traitsIcESaIcEEbRKNSt7__cxx1112basic_stringIT_T0_T1_EEPKS5_>
    615e:	84 c0                	test   %al,%al
    6160:	74 07                	je     6169 <main+0x220>
    6162:	b8 01 00 00 00       	mov    $0x1,%eax
    6167:	eb 05                	jmp    616e <main+0x225>
    6169:	b8 00 00 00 00       	mov    $0x0,%eax
    616e:	84 c0                	test   %al,%al
    6170:	0f 84 8a 00 00 00    	je     6200 <main+0x2b7>
    6176:	48 8d 05 db 0e 03 00 	lea    0x30edb(%rip),%rax        # 37058 <_IO_stdin_used+0x58>
    617d:	48 89 c6             	mov    %rax,%rsi
    6180:	48 8d 05 f9 82 04 00 	lea    0x482f9(%rip),%rax        # 4e480 <_ZSt4cout@GLIBCXX_3.4>
    6187:	48 89 c7             	mov    %rax,%rdi
    618a:	e8 41 f9 ff ff       	call   5ad0 <_ZStlsISt11char_traitsIcEERSt13basic_ostreamIcT_ES5_PKc@plt>
    618f:	48 8d 05 fe 0e 03 00 	lea    0x30efe(%rip),%rax        # 37094 <_IO_stdin_used+0x94>
    6196:	48 89 c6             	mov    %rax,%rsi
    6199:	48 8d 05 e0 82 04 00 	lea    0x482e0(%rip),%rax        # 4e480 <_ZSt4cout@GLIBCXX_3.4>
    61a0:	48 89 c7             	mov    %rax,%rdi
    61a3:	e8 28 f9 ff ff       	call   5ad0 <_ZStlsISt11char_traitsIcEERSt13basic_ostreamIcT_ES5_PKc@plt>
    61a8:	48 8d 05 f1 0e 03 00 	lea    0x30ef1(%rip),%rax        # 370a0 <_IO_stdin_used+0xa0>
    61af:	48 89 c6             	mov    %rax,%rsi
    61b2:	48 8d 05 c7 82 04 00 	lea    0x482c7(%rip),%rax        # 4e480 <_ZSt4cout@GLIBCXX_3.4>
    61b9:	48 89 c7             	mov    %rax,%rdi
    61bc:	e8 0f f9 ff ff       	call   5ad0 <_ZStlsISt11char_traitsIcEERSt13basic_ostreamIcT_ES5_PKc@plt>
    61c1:	48 8d 05 10 0f 03 00 	lea    0x30f10(%rip),%rax        # 370d8 <_IO_stdin_used+0xd8>
    61c8:	48 89 c6             	mov    %rax,%rsi
    61cb:	48 8d 05 ae 82 04 00 	lea    0x482ae(%rip),%rax        # 4e480 <_ZSt4cout@GLIBCXX_3.4>
    61d2:	48 89 c7             	mov    %rax,%rdi
    61d5:	e8 f6 f8 ff ff       	call   5ad0 <_ZStlsISt11char_traitsIcEERSt13basic_ostreamIcT_ES5_PKc@plt>
    61da:	48 8d 05 27 0f 03 00 	lea    0x30f27(%rip),%rax        # 37108 <_IO_stdin_used+0x108>
    61e1:	48 89 c6             	mov    %rax,%rsi
    61e4:	48 8d 05 95 82 04 00 	lea    0x48295(%rip),%rax        # 4e480 <_ZSt4cout@GLIBCXX_3.4>
    61eb:	48 89 c7             	mov    %rax,%rdi
    61ee:	e8 dd f8 ff ff       	call   5ad0 <_ZStlsISt11char_traitsIcEERSt13basic_ostreamIcT_ES5_PKc@plt>
    61f3:	bb 00 00 00 00       	mov    $0x0,%ebx
    61f8:	41 bc 00 00 00 00    	mov    $0x0,%r12d
    61fe:	eb 56                	jmp    6256 <main+0x30d>
    6200:	48 8d 05 30 0f 03 00 	lea    0x30f30(%rip),%rax        # 37137 <_IO_stdin_used+0x137>
    6207:	48 89 c6             	mov    %rax,%rsi
    620a:	48 8d 05 cf 83 04 00 	lea    0x483cf(%rip),%rax        # 4e5e0 <_ZSt4cerr@GLIBCXX_3.4>
    6211:	48 89 c7             	mov    %rax,%rdi
    6214:	e8 b7 f8 ff ff       	call   5ad0 <_ZStlsISt11char_traitsIcEERSt13basic_ostreamIcT_ES5_PKc@plt>
    6219:	48 89 c2             	mov    %rax,%rdx
    621c:	48 8d 85 d0 ed ff ff 	lea    -0x1230(%rbp),%rax
    6223:	48 89 c6             	mov    %rax,%rsi
    6226:	48 89 d7             	mov    %rdx,%rdi
    6229:	e8 52 f8 ff ff       	call   5a80 <_ZStlsIcSt11char_traitsIcESaIcEERSt13basic_ostreamIT_T0_ES7_RKNSt7__cxx1112basic_stringIS4_S5_T1_EE@plt>
    622e:	48 89 c2             	mov    %rax,%rdx
    6231:	48 8d 05 10 0f 03 00 	lea    0x30f10(%rip),%rax        # 37148 <_IO_stdin_used+0x148>
    6238:	48 89 c6             	mov    %rax,%rsi
    623b:	48 89 d7             	mov    %rdx,%rdi
    623e:	e8 8d f8 ff ff       	call   5ad0 <_ZStlsISt11char_traitsIcEERSt13basic_ostreamIcT_ES5_PKc@plt>
    6243:	bb 01 00 00 00       	mov    $0x1,%ebx
    6248:	41 bc 00 00 00 00    	mov    $0x0,%r12d
    624e:	eb 06                	jmp    6256 <main+0x30d>
    6250:	41 bc 01 00 00 00    	mov    $0x1,%r12d
    6256:	48 8d 85 d0 ed ff ff 	lea    -0x1230(%rbp),%rax
    625d:	48 89 c7             	mov    %rax,%rdi
    6260:	e8 1b f7 ff ff       	call   5980 <_ZNSt7__cxx1112basic_stringIcSt11char_traitsIcESaIcEED1Ev@plt>
    6265:	41 83 fc 01          	cmp    $0x1,%r12d
    6269:	0f 85 1f 05 00 00    	jne    678e <main+0x845>
    626f:	83 85 c8 e8 ff ff 01 	addl   $0x1,-0x1738(%rbp)
    6276:	8b 85 c8 e8 ff ff    	mov    -0x1738(%rbp),%eax
    627c:	3b 85 bc e8 ff ff    	cmp    -0x1744(%rbp),%eax
    6282:	0f 8c 82 fd ff ff    	jl     600a <main+0xc1>
    6288:	48 8d 85 30 e9 ff ff 	lea    -0x16d0(%rbp),%rax
    628f:	48 89 c7             	mov    %rax,%rdi
    6292:	e8 99 fa ff ff       	call   5d30 <_ZNKSt7__cxx1112basic_stringIcSt11char_traitsIcESaIcEE5emptyEv@plt>
    6297:	84 c0                	test   %al,%al
    6299:	74 48                	je     62e3 <main+0x39a>
    629b:	48 8d 85 d0 ed ff ff 	lea    -0x1230(%rbp),%rax
    62a2:	48 8d 8d 10 e9 ff ff 	lea    -0x16f0(%rbp),%rcx
    62a9:	48 8d 15 9a 0e 03 00 	lea    0x30e9a(%rip),%rdx        # 3714a <_IO_stdin_used+0x14a>
    62b0:	48 89 ce             	mov    %rcx,%rsi
    62b3:	48 89 c7             	mov    %rax,%rdi
    62b6:	e8 16 0a 00 00       	call   6cd1 <_ZStplIcSt11char_traitsIcESaIcEENSt7__cxx1112basic_stringIT_T0_T1_EERKS8_PKS5_>
    62bb:	48 8d 95 d0 ed ff ff 	lea    -0x1230(%rbp),%rdx
    62c2:	48 8d 85 30 e9 ff ff 	lea    -0x16d0(%rbp),%rax
    62c9:	48 89 d6             	mov    %rdx,%rsi
    62cc:	48 89 c7             	mov    %rax,%rdi
    62cf:	e8 fc f8 ff ff       	call   5bd0 <_ZNSt7__cxx1112basic_stringIcSt11char_traitsIcESaIcEEaSEOS4_@plt>
    62d4:	48 8d 85 d0 ed ff ff 	lea    -0x1230(%rbp),%rax
    62db:	48 89 c7             	mov    %rax,%rdi
    62de:	e8 9d f6 ff ff       	call   5980 <_ZNSt7__cxx1112basic_stringIcSt11char_traitsIcESaIcEED1Ev@plt>
    62e3:	48 8d 85 00 e9 ff ff 	lea    -0x1700(%rbp),%rax
    62ea:	48 89 85 e0 e8 ff ff 	mov    %rax,-0x1720(%rbp)
    62f1:	90                   	nop
    62f2:	90                   	nop
    62f3:	48 8d 95 00 e9 ff ff 	lea    -0x1700(%rbp),%rdx
    62fa:	48 8d 85 50 e9 ff ff 	lea    -0x16b0(%rbp),%rax
    6301:	48 8d 0d 47 0e 03 00 	lea    0x30e47(%rip),%rcx        # 3714f <_IO_stdin_used+0x14f>
    6308:	48 89 ce             	mov    %rcx,%rsi
    630b:	48 89 c7             	mov    %rax,%rdi
    630e:	e8 89 08 00 00       	call   6b9c <_ZNSt7__cxx1112basic_stringIcSt11char_traitsIcESaIcEEC1IS3_EEPKcRKS3_>
    6313:	48 8d 85 00 e9 ff ff 	lea    -0x1700(%rbp),%rax
    631a:	48 89 c7             	mov    %rax,%rdi
    631d:	e8 10 0d 00 00       	call   7032 <_ZNSt15__new_allocatorIcED1Ev>
    6322:	90                   	nop
    6323:	80 bd c6 e8 ff ff 00 	cmpb   $0x0,-0x173a(%rbp)
    632a:	74 19                	je     6345 <main+0x3fc>
    632c:	48 8d 85 50 e9 ff ff 	lea    -0x16b0(%rbp),%rax
    6333:	48 8d 15 21 0e 03 00 	lea    0x30e21(%rip),%rdx        # 3715b <_IO_stdin_used+0x15b>
    633a:	48 89 d6             	mov    %rdx,%rsi
    633d:	48 89 c7             	mov    %rax,%rdi
    6340:	e8 6b f7 ff ff       	call   5ab0 <_ZNSt7__cxx1112basic_stringIcSt11char_traitsIcESaIcEEpLEPKc@plt>
    6345:	48 8d 85 d0 eb ff ff 	lea    -0x1430(%rbp),%rax
    634c:	48 8d 95 10 e9 ff ff 	lea    -0x16f0(%rbp),%rdx
    6353:	be 22 00 00 00       	mov    $0x22,%esi
    6358:	48 89 c7             	mov    %rax,%rdi
    635b:	e8 5f 0a 00 00       	call   6dbf <_ZStplIcSt11char_traitsIcESaIcEENSt7__cxx1112basic_stringIT_T0_T1_EES5_RKS8_>
    6360:	48 8d 85 d0 ed ff ff 	lea    -0x1230(%rbp),%rax
    6367:	48 8d 8d d0 eb ff ff 	lea    -0x1430(%rbp),%rcx
    636e:	ba 22 00 00 00       	mov    $0x22,%edx
    6373:	48 89 ce             	mov    %rcx,%rsi
    6376:	48 89 c7             	mov    %rax,%rdi
    6379:	e8 1e 0b 00 00       	call   6e9c <_ZStplIcSt11char_traitsIcESaIcEENSt7__cxx1112basic_stringIT_T0_T1_EEOS8_S5_>
    637e:	48 8d 95 d0 ed ff ff 	lea    -0x1230(%rbp),%rdx
    6385:	48 8d 85 50 e9 ff ff 	lea    -0x16b0(%rbp),%rax
    638c:	48 89 d6             	mov    %rdx,%rsi
    638f:	48 89 c7             	mov    %rax,%rdi
    6392:	e8 79 f8 ff ff       	call   5c10 <_ZNSt7__cxx1112basic_stringIcSt11char_traitsIcESaIcEEpLERKS4_@plt>
    6397:	48 8d 85 d0 ed ff ff 	lea    -0x1230(%rbp),%rax
    639e:	48 89 c7             	mov    %rax,%rdi
    63a1:	e8 da f5 ff ff       	call   5980 <_ZNSt7__cxx1112basic_stringIcSt11char_traitsIcESaIcEED1Ev@plt>
    63a6:	48 8d 85 d0 eb ff ff 	lea    -0x1430(%rbp),%rax
    63ad:	48 89 c7             	mov    %rax,%rdi
    63b0:	e8 cb f5 ff ff       	call   5980 <_ZNSt7__cxx1112basic_stringIcSt11char_traitsIcESaIcEED1Ev@plt>
    63b5:	48 8d 85 50 e9 ff ff 	lea    -0x16b0(%rbp),%rax
    63bc:	48 89 c7             	mov    %rax,%rdi
    63bf:	e8 ac f4 ff ff       	call   5870 <_ZNKSt7__cxx1112basic_stringIcSt11char_traitsIcESaIcEE5c_strEv@plt>
    63c4:	48 89 c2             	mov    %rax,%rdx
    63c7:	48 8d 05 96 0d 03 00 	lea    0x30d96(%rip),%rax        # 37164 <_IO_stdin_used+0x164>
    63ce:	48 89 c6             	mov    %rax,%rsi
    63d1:	48 89 d7             	mov    %rdx,%rdi
    63d4:	e8 27 f4 ff ff       	call   5800 <popen@plt>
    63d9:	48 89 85 d0 e8 ff ff 	mov    %rax,-0x1730(%rbp)
    63e0:	48 83 bd d0 e8 ff ff 	cmpq   $0x0,-0x1730(%rbp)
    63e7:	00 
    63e8:	75 23                	jne    640d <main+0x4c4>
    63ea:	48 8d 05 77 0d 03 00 	lea    0x30d77(%rip),%rax        # 37168 <_IO_stdin_used+0x168>
    63f1:	48 89 c6             	mov    %rax,%rsi
    63f4:	48 8d 05 e5 81 04 00 	lea    0x481e5(%rip),%rax        # 4e5e0 <_ZSt4cerr@GLIBCXX_3.4>
    63fb:	48 89 c7             	mov    %rax,%rdi
    63fe:	e8 cd f6 ff ff       	call   5ad0 <_ZStlsISt11char_traitsIcEERSt13basic_ostreamIcT_ES5_PKc@plt>
    6403:	bb 02 00 00 00       	mov    $0x2,%ebx
    6408:	e9 72 03 00 00       	jmp    677f <main+0x836>
    640d:	be 04 00 00 00       	mov    $0x4,%esi
    6412:	bf 10 00 00 00       	mov    $0x10,%edi
    6417:	e8 d3 06 00 00       	call   6aef <_ZStorSt13_Ios_OpenmodeS_>
    641c:	89 c2                	mov    %eax,%edx
    641e:	48 8d 8d 30 e9 ff ff 	lea    -0x16d0(%rbp),%rcx
    6425:	48 8d 85 d0 e9 ff ff 	lea    -0x1630(%rbp),%rax
    642c:	48 89 ce             	mov    %rcx,%rsi
    642f:	48 89 c7             	mov    %rax,%rdi
    6432:	e8 d9 f9 ff ff       	call   5e10 <_ZNSt14basic_ofstreamIcSt11char_traitsIcEEC1ERKNSt7__cxx1112basic_stringIcS1_SaIcEEESt13_Ios_Openmode@plt>
    6437:	48 8d 85 d0 e9 ff ff 	lea    -0x1630(%rbp),%rax
    643e:	48 05 f8 00 00 00    	add    $0xf8,%rax
    6444:	48 89 c7             	mov    %rax,%rdi
    6447:	e8 84 f4 ff ff       	call   58d0 <_ZNKSt9basic_iosIcSt11char_traitsIcEEntEv@plt>
    644c:	84 c0                	test   %al,%al
    644e:	74 75                	je     64c5 <main+0x57c>
    6450:	48 8d 05 54 0d 03 00 	lea    0x30d54(%rip),%rax        # 371ab <_IO_stdin_used+0x1ab>
    6457:	48 89 c6             	mov    %rax,%rsi
    645a:	48 8d 05 7f 81 04 00 	lea    0x4817f(%rip),%rax        # 4e5e0 <_ZSt4cerr@GLIBCXX_3.4>
    6461:	48 89 c7             	mov    %rax,%rdi
    6464:	e8 67 f6 ff ff       	call   5ad0 <_ZStlsISt11char_traitsIcEERSt13basic_ostreamIcT_ES5_PKc@plt>
    6469:	48 89 c2             	mov    %rax,%rdx
    646c:	48 8d 85 30 e9 ff ff 	lea    -0x16d0(%rbp),%rax
    6473:	48 89 c6             	mov    %rax,%rsi
    6476:	48 89 d7             	mov    %rdx,%rdi
    6479:	e8 02 f6 ff ff       	call   5a80 <_ZStlsIcSt11char_traitsIcESaIcEERSt13basic_ostreamIT_T0_ES7_RKNSt7__cxx1112basic_stringIS4_S5_T1_EE@plt>
    647e:	48 89 c2             	mov    %rax,%rdx
    6481:	48 8d 05 c0 0c 03 00 	lea    0x30cc0(%rip),%rax        # 37148 <_IO_stdin_used+0x148>
    6488:	48 89 c6             	mov    %rax,%rsi
    648b:	48 89 d7             	mov    %rdx,%rdi
    648e:	e8 3d f6 ff ff       	call   5ad0 <_ZStlsISt11char_traitsIcEERSt13basic_ostreamIcT_ES5_PKc@plt>
    6493:	48 8b 85 d0 e8 ff ff 	mov    -0x1730(%rbp),%rax
    649a:	48 89 c7             	mov    %rax,%rdi
    649d:	e8 ee f7 ff ff       	call   5c90 <pclose@plt>
    64a2:	bb 03 00 00 00       	mov    $0x3,%ebx
    64a7:	e9 c4 02 00 00       	jmp    6770 <main+0x827>
    64ac:	48 8d 95 e0 ef ff ff 	lea    -0x1020(%rbp),%rdx
    64b3:	48 8d 85 d0 e9 ff ff 	lea    -0x1630(%rbp),%rax
    64ba:	48 89 d6             	mov    %rdx,%rsi
    64bd:	48 89 c7             	mov    %rax,%rdi
    64c0:	e8 0b f6 ff ff       	call   5ad0 <_ZStlsISt11char_traitsIcEERSt13basic_ostreamIcT_ES5_PKc@plt>
    64c5:	48 8b 95 d0 e8 ff ff 	mov    -0x1730(%rbp),%rdx
    64cc:	48 8d 85 e0 ef ff ff 	lea    -0x1020(%rbp),%rax
    64d3:	be 00 10 00 00       	mov    $0x1000,%esi
    64d8:	48 89 c7             	mov    %rax,%rdi
    64db:	e8 00 f8 ff ff       	call   5ce0 <fgets@plt>
    64e0:	48 85 c0             	test   %rax,%rax
    64e3:	0f 95 c0             	setne  %al
    64e6:	84 c0                	test   %al,%al
    64e8:	75 c2                	jne    64ac <main+0x563>
    64ea:	48 8b 85 d0 e8 ff ff 	mov    -0x1730(%rbp),%rax
    64f1:	48 89 c7             	mov    %rax,%rdi
    64f4:	e8 97 f7 ff ff       	call   5c90 <pclose@plt>
    64f9:	89 85 cc e8 ff ff    	mov    %eax,-0x1734(%rbp)
    64ff:	83 bd cc e8 ff ff 00 	cmpl   $0x0,-0x1734(%rbp)
    6506:	74 41                	je     6549 <main+0x600>
    6508:	48 8d 05 b9 0c 03 00 	lea    0x30cb9(%rip),%rax        # 371c8 <_IO_stdin_used+0x1c8>
    650f:	48 89 c6             	mov    %rax,%rsi
    6512:	48 8d 05 c7 80 04 00 	lea    0x480c7(%rip),%rax        # 4e5e0 <_ZSt4cerr@GLIBCXX_3.4>
    6519:	48 89 c7             	mov    %rax,%rdi
    651c:	e8 af f5 ff ff       	call   5ad0 <_ZStlsISt11char_traitsIcEERSt13basic_ostreamIcT_ES5_PKc@plt>
    6521:	48 89 c2             	mov    %rax,%rdx
    6524:	8b 85 cc e8 ff ff    	mov    -0x1734(%rbp),%eax
    652a:	89 c6                	mov    %eax,%esi
    652c:	48 89 d7             	mov    %rdx,%rdi
    652f:	e8 5c f8 ff ff       	call   5d90 <_ZNSolsEi@plt>
    6534:	48 89 c2             	mov    %rax,%rdx
    6537:	48 8d 05 aa 0c 03 00 	lea    0x30caa(%rip),%rax        # 371e8 <_IO_stdin_used+0x1e8>
    653e:	48 89 c6             	mov    %rax,%rsi
    6541:	48 89 d7             	mov    %rdx,%rdi
    6544:	e8 87 f5 ff ff       	call   5ad0 <_ZStlsISt11char_traitsIcEERSt13basic_ostreamIcT_ES5_PKc@plt>
    6549:	48 8d 05 c0 0c 03 00 	lea    0x30cc0(%rip),%rax        # 37210 <_IO_stdin_used+0x210>
    6550:	48 89 c6             	mov    %rax,%rsi
    6553:	48 8d 05 26 7f 04 00 	lea    0x47f26(%rip),%rax        # 4e480 <_ZSt4cout@GLIBCXX_3.4>
    655a:	48 89 c7             	mov    %rax,%rdi
    655d:	e8 6e f5 ff ff       	call   5ad0 <_ZStlsISt11char_traitsIcEERSt13basic_ostreamIcT_ES5_PKc@plt>
    6562:	48 89 c2             	mov    %rax,%rdx
    6565:	48 8d 85 30 e9 ff ff 	lea    -0x16d0(%rbp),%rax
    656c:	48 89 c6             	mov    %rax,%rsi
    656f:	48 89 d7             	mov    %rdx,%rdi
    6572:	e8 09 f5 ff ff       	call   5a80 <_ZStlsIcSt11char_traitsIcESaIcEERSt13basic_ostreamIT_T0_ES7_RKNSt7__cxx1112basic_stringIS4_S5_T1_EE@plt>
    6577:	48 89 c2             	mov    %rax,%rdx
    657a:	48 8d 05 c7 0b 03 00 	lea    0x30bc7(%rip),%rax        # 37148 <_IO_stdin_used+0x148>
    6581:	48 89 c6             	mov    %rax,%rsi
    6584:	48 89 d7             	mov    %rdx,%rdi
    6587:	e8 44 f5 ff ff       	call   5ad0 <_ZStlsISt11char_traitsIcEERSt13basic_ostreamIcT_ES5_PKc@plt>
    658c:	80 bd c7 e8 ff ff 00 	cmpb   $0x0,-0x1739(%rbp)
    6593:	0f 84 d2 01 00 00    	je     676b <main+0x822>
    6599:	be 04 00 00 00       	mov    $0x4,%esi
    659e:	bf 08 00 00 00       	mov    $0x8,%edi
    65a3:	e8 47 05 00 00       	call   6aef <_ZStorSt13_Ios_OpenmodeS_>
    65a8:	89 c2                	mov    %eax,%edx
    65aa:	48 8d 8d 30 e9 ff ff 	lea    -0x16d0(%rbp),%rcx
    65b1:	48 8d 85 d0 ed ff ff 	lea    -0x1230(%rbp),%rax
    65b8:	48 89 ce             	mov    %rcx,%rsi
    65bb:	48 89 c7             	mov    %rax,%rdi
    65be:	e8 3d f7 ff ff       	call   5d00 <_ZNSt14basic_ifstreamIcSt11char_traitsIcEEC1ERKNSt7__cxx1112basic_stringIcS1_SaIcEEESt13_Ios_Openmode@plt>
    65c3:	48 8d 85 c5 e8 ff ff 	lea    -0x173b(%rbp),%rax
    65ca:	48 89 85 e8 e8 ff ff 	mov    %rax,-0x1718(%rbp)
    65d1:	90                   	nop
    65d2:	90                   	nop
    65d3:	48 8d 85 00 e9 ff ff 	lea    -0x1700(%rbp),%rax
    65da:	48 89 c7             	mov    %rax,%rdi
    65dd:	e8 52 09 00 00       	call   6f34 <_ZNSt19istreambuf_iteratorIcSt11char_traitsIcEEC1Ev>
    65e2:	48 8d 95 d0 ed ff ff 	lea    -0x1230(%rbp),%rdx
    65e9:	48 8d 85 f0 e8 ff ff 	lea    -0x1710(%rbp),%rax
    65f0:	48 89 d6             	mov    %rdx,%rsi
    65f3:	48 89 c7             	mov    %rax,%rdi
    65f6:	e8 ef 08 00 00       	call   6eea <_ZNSt19istreambuf_iteratorIcSt11char_traitsIcEEC1ERSi>
    65fb:	4c 8d 85 c5 e8 ff ff 	lea    -0x173b(%rbp),%r8
    6602:	48 8b 8d 00 e9 ff ff 	mov    -0x1700(%rbp),%rcx
    6609:	48 8b bd 08 e9 ff ff 	mov    -0x16f8(%rbp),%rdi
    6610:	48 8b b5 f0 e8 ff ff 	mov    -0x1710(%rbp),%rsi
    6617:	48 8b 95 f8 e8 ff ff 	mov    -0x1708(%rbp),%rdx
    661e:	48 8d 85 70 e9 ff ff 	lea    -0x1690(%rbp),%rax
    6625:	4d 89 c1             	mov    %r8,%r9
    6628:	49 89 f8             	mov    %rdi,%r8
    662b:	48 89 c7             	mov    %rax,%rdi
    662e:	e8 2b 09 00 00       	call   6f5e <_ZNSt7__cxx1112basic_stringIcSt11char_traitsIcESaIcEEC1ISt19istreambuf_iteratorIcS2_EvEET_S8_RKS3_>
    6633:	48 8d 85 c5 e8 ff ff 	lea    -0x173b(%rbp),%rax
    663a:	48 89 c7             	mov    %rax,%rdi
    663d:	e8 f0 09 00 00       	call   7032 <_ZNSt15__new_allocatorIcED1Ev>
    6642:	90                   	nop
    6643:	48 8d 85 90 e9 ff ff 	lea    -0x1670(%rbp),%rax
    664a:	48 8d 95 70 e9 ff ff 	lea    -0x1690(%rbp),%rdx
    6651:	48 89 d6             	mov    %rdx,%rsi
    6654:	48 89 c7             	mov    %rax,%rdi
    6657:	e8 bc 10 00 00       	call   7718 <_ZN10Visualizer18generateMermaidCFGERKNSt7__cxx1112basic_stringIcSt11char_traitsIcESaIcEEE>
    665c:	48 8d 85 b0 e9 ff ff 	lea    -0x1650(%rbp),%rax
    6663:	48 8d 8d 30 e9 ff ff 	lea    -0x16d0(%rbp),%rcx
    666a:	48 8d 15 b3 0b 03 00 	lea    0x30bb3(%rip),%rdx        # 37224 <_IO_stdin_used+0x224>
    6671:	48 89 ce             	mov    %rcx,%rsi
    6674:	48 89 c7             	mov    %rax,%rdi
    6677:	e8 55 06 00 00       	call   6cd1 <_ZStplIcSt11char_traitsIcESaIcEENSt7__cxx1112basic_stringIT_T0_T1_EERKS8_PKS5_>
    667c:	48 8d 8d b0 e9 ff ff 	lea    -0x1650(%rbp),%rcx
    6683:	48 8d 85 d0 eb ff ff 	lea    -0x1430(%rbp),%rax
    668a:	ba 10 00 00 00       	mov    $0x10,%edx
    668f:	48 89 ce             	mov    %rcx,%rsi
    6692:	48 89 c7             	mov    %rax,%rdi
    6695:	e8 76 f7 ff ff       	call   5e10 <_ZNSt14basic_ofstreamIcSt11char_traitsIcEEC1ERKNSt7__cxx1112basic_stringIcS1_SaIcEEESt13_Ios_Openmode@plt>
    669a:	48 8d 85 d0 eb ff ff 	lea    -0x1430(%rbp),%rax
    66a1:	48 8d 15 84 0b 03 00 	lea    0x30b84(%rip),%rdx        # 3722c <_IO_stdin_used+0x22c>
    66a8:	48 89 d6             	mov    %rdx,%rsi
    66ab:	48 89 c7             	mov    %rax,%rdi
    66ae:	e8 1d f4 ff ff       	call   5ad0 <_ZStlsISt11char_traitsIcEERSt13basic_ostreamIcT_ES5_PKc@plt>
    66b3:	48 89 c2             	mov    %rax,%rdx
    66b6:	48 8d 85 90 e9 ff ff 	lea    -0x1670(%rbp),%rax
    66bd:	48 89 c6             	mov    %rax,%rsi
    66c0:	48 89 d7             	mov    %rdx,%rdi
    66c3:	e8 b8 f3 ff ff       	call   5a80 <_ZStlsIcSt11char_traitsIcESaIcEERSt13basic_ostreamIT_T0_ES7_RKNSt7__cxx1112basic_stringIS4_S5_T1_EE@plt>
    66c8:	48 89 c2             	mov    %rax,%rdx
    66cb:	48 8d 05 66 0b 03 00 	lea    0x30b66(%rip),%rax        # 37238 <_IO_stdin_used+0x238>
    66d2:	48 89 c6             	mov    %rax,%rsi
    66d5:	48 89 d7             	mov    %rdx,%rdi
    66d8:	e8 f3 f3 ff ff       	call   5ad0 <_ZStlsISt11char_traitsIcEERSt13basic_ostreamIcT_ES5_PKc@plt>
    66dd:	48 8d 05 59 0b 03 00 	lea    0x30b59(%rip),%rax        # 3723d <_IO_stdin_used+0x23d>
    66e4:	48 89 c6             	mov    %rax,%rsi
    66e7:	48 8d 05 92 7d 04 00 	lea    0x47d92(%rip),%rax        # 4e480 <_ZSt4cout@GLIBCXX_3.4>
    66ee:	48 89 c7             	mov    %rax,%rdi
    66f1:	e8 da f3 ff ff       	call   5ad0 <_ZStlsISt11char_traitsIcEERSt13basic_ostreamIcT_ES5_PKc@plt>
    66f6:	48 89 c2             	mov    %rax,%rdx
    66f9:	48 8d 85 b0 e9 ff ff 	lea    -0x1650(%rbp),%rax
    6700:	48 89 c6             	mov    %rax,%rsi
    6703:	48 89 d7             	mov    %rdx,%rdi
    6706:	e8 75 f3 ff ff       	call   5a80 <_ZStlsIcSt11char_traitsIcESaIcEERSt13basic_ostreamIT_T0_ES7_RKNSt7__cxx1112basic_stringIS4_S5_T1_EE@plt>
    670b:	48 89 c2             	mov    %rax,%rdx
    670e:	48 8d 05 33 0a 03 00 	lea    0x30a33(%rip),%rax        # 37148 <_IO_stdin_used+0x148>
    6715:	48 89 c6             	mov    %rax,%rsi
    6718:	48 89 d7             	mov    %rdx,%rdi
    671b:	e8 b0 f3 ff ff       	call   5ad0 <_ZStlsISt11char_traitsIcEERSt13basic_ostreamIcT_ES5_PKc@plt>
    6720:	48 8d 85 d0 eb ff ff 	lea    -0x1430(%rbp),%rax
    6727:	48 89 c7             	mov    %rax,%rdi
    672a:	e8 81 f5 ff ff       	call   5cb0 <_ZNSt14basic_ofstreamIcSt11char_traitsIcEED1Ev@plt>
    672f:	48 8d 85 b0 e9 ff ff 	lea    -0x1650(%rbp),%rax
    6736:	48 89 c7             	mov    %rax,%rdi
    6739:	e8 42 f2 ff ff       	call   5980 <_ZNSt7__cxx1112basic_stringIcSt11char_traitsIcESaIcEED1Ev@plt>
    673e:	48 8d 85 90 e9 ff ff 	lea    -0x1670(%rbp),%rax
    6745:	48 89 c7             	mov    %rax,%rdi
    6748:	e8 33 f2 ff ff       	call   5980 <_ZNSt7__cxx1112basic_stringIcSt11char_traitsIcESaIcEED1Ev@plt>
    674d:	48 8d 85 70 e9 ff ff 	lea    -0x1690(%rbp),%rax
    6754:	48 89 c7             	mov    %rax,%rdi
    6757:	e8 24 f2 ff ff       	call   5980 <_ZNSt7__cxx1112basic_stringIcSt11char_traitsIcESaIcEED1Ev@plt>
    675c:	48 8d 85 d0 ed ff ff 	lea    -0x1230(%rbp),%rax
    6763:	48 89 c7             	mov    %rax,%rdi
    6766:	e8 75 f0 ff ff       	call   57e0 <_ZNSt14basic_ifstreamIcSt11char_traitsIcEED1Ev@plt>
    676b:	bb 00 00 00 00       	mov    $0x0,%ebx
    6770:	48 8d 85 d0 e9 ff ff 	lea    -0x1630(%rbp),%rax
    6777:	48 89 c7             	mov    %rax,%rdi
    677a:	e8 31 f5 ff ff       	call   5cb0 <_ZNSt14basic_ofstreamIcSt11char_traitsIcEED1Ev@plt>
    677f:	48 8d 85 50 e9 ff ff 	lea    -0x16b0(%rbp),%rax
    6786:	48 89 c7             	mov    %rax,%rdi
    6789:	e8 f2 f1 ff ff       	call   5980 <_ZNSt7__cxx1112basic_stringIcSt11char_traitsIcESaIcEED1Ev@plt>
    678e:	48 8d 85 30 e9 ff ff 	lea    -0x16d0(%rbp),%rax
    6795:	48 89 c7             	mov    %rax,%rdi
    6798:	e8 e3 f1 ff ff       	call   5980 <_ZNSt7__cxx1112basic_stringIcSt11char_traitsIcESaIcEED1Ev@plt>
    679d:	48 8d 85 10 e9 ff ff 	lea    -0x16f0(%rbp),%rax
    67a4:	48 89 c7             	mov    %rax,%rdi
    67a7:	e8 d4 f1 ff ff       	call   5980 <_ZNSt7__cxx1112basic_stringIcSt11char_traitsIcESaIcEED1Ev@plt>
    67ac:	89 d8                	mov    %ebx,%eax
    67ae:	48 8b 55 e8          	mov    -0x18(%rbp),%rdx
    67b2:	64 48 2b 14 25 28 00 	sub    %fs:0x28,%rdx
    67b9:	00 00 
    67bb:	0f 84 8c 01 00 00    	je     694d <main+0xa04>
    67c1:	e9 82 01 00 00       	jmp    6948 <main+0x9ff>
    67c6:	f3 0f 1e fa          	endbr64
    67ca:	48 89 c3             	mov    %rax,%rbx
    67cd:	48 8d 85 00 e9 ff ff 	lea    -0x1700(%rbp),%rax
    67d4:	48 89 c7             	mov    %rax,%rdi
    67d7:	e8 56 08 00 00       	call   7032 <_ZNSt15__new_allocatorIcED1Ev>
    67dc:	90                   	nop
    67dd:	e9 29 01 00 00       	jmp    690b <main+0x9c2>
    67e2:	f3 0f 1e fa          	endbr64
    67e6:	48 89 c3             	mov    %rax,%rbx
    67e9:	48 8d 85 d0 ed ff ff 	lea    -0x1230(%rbp),%rax
    67f0:	48 89 c7             	mov    %rax,%rdi
    67f3:	e8 88 f1 ff ff       	call   5980 <_ZNSt7__cxx1112basic_stringIcSt11char_traitsIcESaIcEED1Ev@plt>
    67f8:	e9 0e 01 00 00       	jmp    690b <main+0x9c2>
    67fd:	f3 0f 1e fa          	endbr64
    6801:	48 89 c3             	mov    %rax,%rbx
    6804:	48 8d 85 00 e9 ff ff 	lea    -0x1700(%rbp),%rax
    680b:	48 89 c7             	mov    %rax,%rdi
    680e:	e8 1f 08 00 00       	call   7032 <_ZNSt15__new_allocatorIcED1Ev>
    6813:	90                   	nop
    6814:	e9 f2 00 00 00       	jmp    690b <main+0x9c2>
    6819:	f3 0f 1e fa          	endbr64
    681d:	48 89 c3             	mov    %rax,%rbx
    6820:	48 8d 85 d0 ed ff ff 	lea    -0x1230(%rbp),%rax
    6827:	48 89 c7             	mov    %rax,%rdi
    682a:	e8 51 f1 ff ff       	call   5980 <_ZNSt7__cxx1112basic_stringIcSt11char_traitsIcESaIcEED1Ev@plt>
    682f:	eb 07                	jmp    6838 <main+0x8ef>
    6831:	f3 0f 1e fa          	endbr64
    6835:	48 89 c3             	mov    %rax,%rbx
    6838:	48 8d 85 d0 eb ff ff 	lea    -0x1430(%rbp),%rax
    683f:	48 89 c7             	mov    %rax,%rdi
    6842:	e8 39 f1 ff ff       	call   5980 <_ZNSt7__cxx1112basic_stringIcSt11char_traitsIcESaIcEED1Ev@plt>
    6847:	e9 a7 00 00 00       	jmp    68f3 <main+0x9aa>
    684c:	f3 0f 1e fa          	endbr64
    6850:	48 89 c3             	mov    %rax,%rbx
    6853:	48 8d 85 c5 e8 ff ff 	lea    -0x173b(%rbp),%rax
    685a:	48 89 c7             	mov    %rax,%rdi
    685d:	e8 d0 07 00 00       	call   7032 <_ZNSt15__new_allocatorIcED1Ev>
    6862:	90                   	nop
    6863:	eb 5e                	jmp    68c3 <main+0x97a>
    6865:	f3 0f 1e fa          	endbr64
    6869:	48 89 c3             	mov    %rax,%rbx
    686c:	48 8d 85 d0 eb ff ff 	lea    -0x1430(%rbp),%rax
    6873:	48 89 c7             	mov    %rax,%rdi
    6876:	e8 35 f4 ff ff       	call   5cb0 <_ZNSt14basic_ofstreamIcSt11char_traitsIcEED1Ev@plt>
    687b:	eb 07                	jmp    6884 <main+0x93b>
    687d:	f3 0f 1e fa          	endbr64
    6881:	48 89 c3             	mov    %rax,%rbx
    6884:	48 8d 85 b0 e9 ff ff 	lea    -0x1650(%rbp),%rax
    688b:	48 89 c7             	mov    %rax,%rdi
    688e:	e8 ed f0 ff ff       	call   5980 <_ZNSt7__cxx1112basic_stringIcSt11char_traitsIcESaIcEED1Ev@plt>
    6893:	eb 07                	jmp    689c <main+0x953>
    6895:	f3 0f 1e fa          	endbr64
    6899:	48 89 c3             	mov    %rax,%rbx
    689c:	48 8d 85 90 e9 ff ff 	lea    -0x1670(%rbp),%rax
    68a3:	48 89 c7             	mov    %rax,%rdi
    68a6:	e8 d5 f0 ff ff       	call   5980 <_ZNSt7__cxx1112basic_stringIcSt11char_traitsIcESaIcEED1Ev@plt>
    68ab:	eb 07                	jmp    68b4 <main+0x96b>
    68ad:	f3 0f 1e fa          	endbr64
    68b1:	48 89 c3             	mov    %rax,%rbx
    68b4:	48 8d 85 70 e9 ff ff 	lea    -0x1690(%rbp),%rax
    68bb:	48 89 c7             	mov    %rax,%rdi
    68be:	e8 bd f0 ff ff       	call   5980 <_ZNSt7__cxx1112basic_stringIcSt11char_traitsIcESaIcEED1Ev@plt>
    68c3:	48 8d 85 d0 ed ff ff 	lea    -0x1230(%rbp),%rax
    68ca:	48 89 c7             	mov    %rax,%rdi
    68cd:	e8 0e ef ff ff       	call   57e0 <_ZNSt14basic_ifstreamIcSt11char_traitsIcEED1Ev@plt>
    68d2:	eb 07                	jmp    68db <main+0x992>
    68d4:	f3 0f 1e fa          	endbr64
    68d8:	48 89 c3             	mov    %rax,%rbx
    68db:	48 8d 85 d0 e9 ff ff 	lea    -0x1630(%rbp),%rax
    68e2:	48 89 c7             	mov    %rax,%rdi
    68e5:	e8 c6 f3 ff ff       	call   5cb0 <_ZNSt14basic_ofstreamIcSt11char_traitsIcEED1Ev@plt>
    68ea:	eb 07                	jmp    68f3 <main+0x9aa>
    68ec:	f3 0f 1e fa          	endbr64
    68f0:	48 89 c3             	mov    %rax,%rbx
    68f3:	48 8d 85 50 e9 ff ff 	lea    -0x16b0(%rbp),%rax
    68fa:	48 89 c7             	mov    %rax,%rdi
    68fd:	e8 7e f0 ff ff       	call   5980 <_ZNSt7__cxx1112basic_stringIcSt11char_traitsIcESaIcEED1Ev@plt>
    6902:	eb 07                	jmp    690b <main+0x9c2>
    6904:	f3 0f 1e fa          	endbr64
    6908:	48 89 c3             	mov    %rax,%rbx
    690b:	48 8d 85 30 e9 ff ff 	lea    -0x16d0(%rbp),%rax
    6912:	48 89 c7             	mov    %rax,%rdi
    6915:	e8 66 f0 ff ff       	call   5980 <_ZNSt7__cxx1112basic_stringIcSt11char_traitsIcESaIcEED1Ev@plt>
    691a:	48 8d 85 10 e9 ff ff 	lea    -0x16f0(%rbp),%rax
    6921:	48 89 c7             	mov    %rax,%rdi
    6924:	e8 57 f0 ff ff       	call   5980 <_ZNSt7__cxx1112basic_stringIcSt11char_traitsIcESaIcEED1Ev@plt>
    6929:	48 89 d8             	mov    %rbx,%rax
    692c:	48 8b 55 e8          	mov    -0x18(%rbp),%rdx
    6930:	64 48 2b 14 25 28 00 	sub    %fs:0x28,%rdx
    6937:	00 00 
    6939:	74 05                	je     6940 <main+0x9f7>
    693b:	e8 40 f2 ff ff       	call   5b80 <__stack_chk_fail@plt>
    6940:	48 89 c7             	mov    %rax,%rdi
    6943:	e8 78 f4 ff ff       	call   5dc0 <_Unwind_Resume@plt>
    6948:	e8 33 f2 ff ff       	call   5b80 <__stack_chk_fail@plt>
    694d:	48 81 c4 40 17 00 00 	add    $0x1740,%rsp
    6954:	5b                   	pop    %rbx
    6955:	41 5c                	pop    %r12
    6957:	5d                   	pop    %rbp
    6958:	c3                   	ret

0000000000006959 <_ZSt23__is_constant_evaluatedv>:
    6959:	f3 0f 1e fa          	endbr64
    695d:	55                   	push   %rbp
    695e:	48 89 e5             	mov    %rsp,%rbp
    6961:	b8 00 00 00 00       	mov    $0x0,%eax
    6966:	5d                   	pop    %rbp
    6967:	c3                   	ret

0000000000006968 <_ZNSt11char_traitsIcE6assignERcRKc>:
    6968:	f3 0f 1e fa          	endbr64
    696c:	55                   	push   %rbp
    696d:	48 89 e5             	mov    %rsp,%rbp
    6970:	48 89 7d f8          	mov    %rdi,-0x8(%rbp)
    6974:	48 89 75 f0          	mov    %rsi,-0x10(%rbp)
    6978:	48 8b 45 f0          	mov    -0x10(%rbp),%rax
    697c:	0f b6 10             	movzbl (%rax),%edx
    697f:	48 8b 45 f8          	mov    -0x8(%rbp),%rax
    6983:	88 10                	mov    %dl,(%rax)
    6985:	90                   	nop
    6986:	5d                   	pop    %rbp
    6987:	c3                   	ret

0000000000006988 <_ZNSt11char_traitsIcE2ltERKcS2_>:
    6988:	f3 0f 1e fa          	endbr64
    698c:	55                   	push   %rbp
    698d:	48 89 e5             	mov    %rsp,%rbp
    6990:	48 89 7d f8          	mov    %rdi,-0x8(%rbp)
    6994:	48 89 75 f0          	mov    %rsi,-0x10(%rbp)
    6998:	48 8b 45 f8          	mov    -0x8(%rbp),%rax
    699c:	0f b6 00             	movzbl (%rax),%eax
    699f:	89 c2                	mov    %eax,%edx
    69a1:	48 8b 45 f0          	mov    -0x10(%rbp),%rax
    69a5:	0f b6 00             	movzbl (%rax),%eax
    69a8:	38 c2                	cmp    %al,%dl
    69aa:	0f 92 c0             	setb   %al
    69ad:	5d                   	pop    %rbp
    69ae:	c3                   	ret

00000000000069af <_ZNSt11char_traitsIcE7compareEPKcS2_m>:
    69af:	f3 0f 1e fa          	endbr64
    69b3:	55                   	push   %rbp
    69b4:	48 89 e5             	mov    %rsp,%rbp
    69b7:	48 83 ec 30          	sub    $0x30,%rsp
    69bb:	48 89 7d e8          	mov    %rdi,-0x18(%rbp)
    69bf:	48 89 75 e0          	mov    %rsi,-0x20(%rbp)
    69c3:	48 89 55 d8          	mov    %rdx,-0x28(%rbp)
    69c7:	48 83 7d d8 00       	cmpq   $0x0,-0x28(%rbp)
    69cc:	75 0a                	jne    69d8 <_ZNSt11char_traitsIcE7compareEPKcS2_m+0x29>
    69ce:	b8 00 00 00 00       	mov    $0x0,%eax
    69d3:	e9 99 00 00 00       	jmp    6a71 <_ZNSt11char_traitsIcE7compareEPKcS2_m+0xc2>
    69d8:	e8 7c ff ff ff       	call   6959 <_ZSt23__is_constant_evaluatedv>
    69dd:	84 c0                	test   %al,%al
    69df:	74 78                	je     6a59 <_ZNSt11char_traitsIcE7compareEPKcS2_m+0xaa>
    69e1:	48 c7 45 f8 00 00 00 	movq   $0x0,-0x8(%rbp)
    69e8:	00 
    69e9:	eb 5d                	jmp    6a48 <_ZNSt11char_traitsIcE7compareEPKcS2_m+0x99>
    69eb:	48 8b 55 e0          	mov    -0x20(%rbp),%rdx
    69ef:	48 8b 45 f8          	mov    -0x8(%rbp),%rax
    69f3:	48 01 c2             	add    %rax,%rdx
    69f6:	48 8b 4d e8          	mov    -0x18(%rbp),%rcx
    69fa:	48 8b 45 f8          	mov    -0x8(%rbp),%rax
    69fe:	48 01 c8             	add    %rcx,%rax
    6a01:	48 89 d6             	mov    %rdx,%rsi
    6a04:	48 89 c7             	mov    %rax,%rdi
    6a07:	e8 7c ff ff ff       	call   6988 <_ZNSt11char_traitsIcE2ltERKcS2_>
    6a0c:	84 c0                	test   %al,%al
    6a0e:	74 07                	je     6a17 <_ZNSt11char_traitsIcE7compareEPKcS2_m+0x68>
    6a10:	b8 ff ff ff ff       	mov    $0xffffffff,%eax
    6a15:	eb 5a                	jmp    6a71 <_ZNSt11char_traitsIcE7compareEPKcS2_m+0xc2>
    6a17:	48 8b 55 e8          	mov    -0x18(%rbp),%rdx
    6a1b:	48 8b 45 f8          	mov    -0x8(%rbp),%rax
    6a1f:	48 01 c2             	add    %rax,%rdx
    6a22:	48 8b 4d e0          	mov    -0x20(%rbp),%rcx
    6a26:	48 8b 45 f8          	mov    -0x8(%rbp),%rax
    6a2a:	48 01 c8             	add    %rcx,%rax
    6a2d:	48 89 d6             	mov    %rdx,%rsi
    6a30:	48 89 c7             	mov    %rax,%rdi
    6a33:	e8 50 ff ff ff       	call   6988 <_ZNSt11char_traitsIcE2ltERKcS2_>
    6a38:	84 c0                	test   %al,%al
    6a3a:	74 07                	je     6a43 <_ZNSt11char_traitsIcE7compareEPKcS2_m+0x94>
    6a3c:	b8 01 00 00 00       	mov    $0x1,%eax
    6a41:	eb 2e                	jmp    6a71 <_ZNSt11char_traitsIcE7compareEPKcS2_m+0xc2>
    6a43:	48 83 45 f8 01       	addq   $0x1,-0x8(%rbp)
    6a48:	48 8b 45 f8          	mov    -0x8(%rbp),%rax
    6a4c:	48 3b 45 d8          	cmp    -0x28(%rbp),%rax
    6a50:	72 99                	jb     69eb <_ZNSt11char_traitsIcE7compareEPKcS2_m+0x3c>
    6a52:	b8 00 00 00 00       	mov    $0x0,%eax
    6a57:	eb 18                	jmp    6a71 <_ZNSt11char_traitsIcE7compareEPKcS2_m+0xc2>
    6a59:	48 8b 55 d8          	mov    -0x28(%rbp),%rdx
    6a5d:	48 8b 4d e0          	mov    -0x20(%rbp),%rcx
    6a61:	48 8b 45 e8          	mov    -0x18(%rbp),%rax
    6a65:	48 89 ce             	mov    %rcx,%rsi
    6a68:	48 89 c7             	mov    %rax,%rdi
    6a6b:	e8 50 ee ff ff       	call   58c0 <memcmp@plt>
    6a70:	90                   	nop
    6a71:	c9                   	leave
    6a72:	c3                   	ret

0000000000006a73 <_ZNSt11char_traitsIcE6lengthEPKc>:
    6a73:	f3 0f 1e fa          	endbr64
    6a77:	55                   	push   %rbp
    6a78:	48 89 e5             	mov    %rsp,%rbp
    6a7b:	48 83 ec 10          	sub    $0x10,%rsp
    6a7f:	48 89 7d f8          	mov    %rdi,-0x8(%rbp)
    6a83:	e8 d1 fe ff ff       	call   6959 <_ZSt23__is_constant_evaluatedv>
    6a88:	84 c0                	test   %al,%al
    6a8a:	74 0e                	je     6a9a <_ZNSt11char_traitsIcE6lengthEPKc+0x27>
    6a8c:	48 8b 45 f8          	mov    -0x8(%rbp),%rax
    6a90:	48 89 c7             	mov    %rax,%rdi
    6a93:	e8 6e 00 00 00       	call   6b06 <_ZN9__gnu_cxx11char_traitsIcE6lengthEPKc>
    6a98:	eb 0d                	jmp    6aa7 <_ZNSt11char_traitsIcE6lengthEPKc+0x34>
    6a9a:	48 8b 45 f8          	mov    -0x8(%rbp),%rax
    6a9e:	48 89 c7             	mov    %rax,%rdi
    6aa1:	e8 fa ed ff ff       	call   58a0 <strlen@plt>
    6aa6:	90                   	nop
    6aa7:	c9                   	leave
    6aa8:	c3                   	ret

0000000000006aa9 <_ZNSt11char_traitsIcE12to_char_typeERKi>:
    6aa9:	f3 0f 1e fa          	endbr64
    6aad:	55                   	push   %rbp
    6aae:	48 89 e5             	mov    %rsp,%rbp
    6ab1:	48 89 7d f8          	mov    %rdi,-0x8(%rbp)
    6ab5:	48 8b 45 f8          	mov    -0x8(%rbp),%rax
    6ab9:	8b 00                	mov    (%rax),%eax
    6abb:	5d                   	pop    %rbp
    6abc:	c3                   	ret

0000000000006abd <_ZNSt11char_traitsIcE11eq_int_typeERKiS2_>:
    6abd:	f3 0f 1e fa          	endbr64
    6ac1:	55                   	push   %rbp
    6ac2:	48 89 e5             	mov    %rsp,%rbp
    6ac5:	48 89 7d f8          	mov    %rdi,-0x8(%rbp)
    6ac9:	48 89 75 f0          	mov    %rsi,-0x10(%rbp)
    6acd:	48 8b 45 f8          	mov    -0x8(%rbp),%rax
    6ad1:	8b 10                	mov    (%rax),%edx
    6ad3:	48 8b 45 f0          	mov    -0x10(%rbp),%rax
    6ad7:	8b 00                	mov    (%rax),%eax
    6ad9:	39 c2                	cmp    %eax,%edx
    6adb:	0f 94 c0             	sete   %al
    6ade:	5d                   	pop    %rbp
    6adf:	c3                   	ret

0000000000006ae0 <_ZNSt11char_traitsIcE3eofEv>:
    6ae0:	f3 0f 1e fa          	endbr64
    6ae4:	55                   	push   %rbp
    6ae5:	48 89 e5             	mov    %rsp,%rbp
    6ae8:	b8 ff ff ff ff       	mov    $0xffffffff,%eax
    6aed:	5d                   	pop    %rbp
    6aee:	c3                   	ret

0000000000006aef <_ZStorSt13_Ios_OpenmodeS_>:
    6aef:	f3 0f 1e fa          	endbr64
    6af3:	55                   	push   %rbp
    6af4:	48 89 e5             	mov    %rsp,%rbp
    6af7:	89 7d fc             	mov    %edi,-0x4(%rbp)
    6afa:	89 75 f8             	mov    %esi,-0x8(%rbp)
    6afd:	8b 45 fc             	mov    -0x4(%rbp),%eax
    6b00:	0b 45 f8             	or     -0x8(%rbp),%eax
    6b03:	5d                   	pop    %rbp
    6b04:	c3                   	ret
    6b05:	90                   	nop

0000000000006b06 <_ZN9__gnu_cxx11char_traitsIcE6lengthEPKc>:
    6b06:	f3 0f 1e fa          	endbr64
    6b0a:	55                   	push   %rbp
    6b0b:	48 89 e5             	mov    %rsp,%rbp
    6b0e:	48 83 ec 30          	sub    $0x30,%rsp
    6b12:	48 89 7d d8          	mov    %rdi,-0x28(%rbp)
    6b16:	64 48 8b 04 25 28 00 	mov    %fs:0x28,%rax
    6b1d:	00 00 
    6b1f:	48 89 45 f8          	mov    %rax,-0x8(%rbp)
    6b23:	31 c0                	xor    %eax,%eax
    6b25:	48 c7 45 f0 00 00 00 	movq   $0x0,-0x10(%rbp)
    6b2c:	00 
    6b2d:	eb 05                	jmp    6b34 <_ZN9__gnu_cxx11char_traitsIcE6lengthEPKc+0x2e>
    6b2f:	48 83 45 f0 01       	addq   $0x1,-0x10(%rbp)
    6b34:	c6 45 ef 00          	movb   $0x0,-0x11(%rbp)
    6b38:	48 8b 55 d8          	mov    -0x28(%rbp),%rdx
    6b3c:	48 8b 45 f0          	mov    -0x10(%rbp),%rax
    6b40:	48 01 c2             	add    %rax,%rdx
    6b43:	48 8d 45 ef          	lea    -0x11(%rbp),%rax
    6b47:	48 89 c6             	mov    %rax,%rsi
    6b4a:	48 89 d7             	mov    %rdx,%rdi
    6b4d:	e8 ba 04 00 00       	call   700c <_ZN9__gnu_cxx11char_traitsIcE2eqERKcS3_>
    6b52:	83 f0 01             	xor    $0x1,%eax
    6b55:	84 c0                	test   %al,%al
    6b57:	75 d6                	jne    6b2f <_ZN9__gnu_cxx11char_traitsIcE6lengthEPKc+0x29>
    6b59:	48 8b 45 f0          	mov    -0x10(%rbp),%rax
    6b5d:	48 8b 55 f8          	mov    -0x8(%rbp),%rdx
    6b61:	64 48 2b 14 25 28 00 	sub    %fs:0x28,%rdx
    6b68:	00 00 
    6b6a:	74 05                	je     6b71 <_ZN9__gnu_cxx11char_traitsIcE6lengthEPKc+0x6b>
    6b6c:	e8 0f f0 ff ff       	call   5b80 <__stack_chk_fail@plt>
    6b71:	c9                   	leave
    6b72:	c3                   	ret
    6b73:	90                   	nop

0000000000006b74 <_ZNSt7__cxx1112basic_stringIcSt11char_traitsIcESaIcEE12_Alloc_hiderD1Ev>:
    6b74:	f3 0f 1e fa          	endbr64
    6b78:	55                   	push   %rbp
    6b79:	48 89 e5             	mov    %rsp,%rbp
    6b7c:	48 83 ec 20          	sub    $0x20,%rsp
    6b80:	48 89 7d e8          	mov    %rdi,-0x18(%rbp)
    6b84:	48 8b 45 e8          	mov    -0x18(%rbp),%rax
    6b88:	48 89 45 f8          	mov    %rax,-0x8(%rbp)
    6b8c:	48 8b 45 f8          	mov    -0x8(%rbp),%rax
    6b90:	48 89 c7             	mov    %rax,%rdi
    6b93:	e8 9a 04 00 00       	call   7032 <_ZNSt15__new_allocatorIcED1Ev>
    6b98:	90                   	nop
    6b99:	90                   	nop
    6b9a:	c9                   	leave
    6b9b:	c3                   	ret

0000000000006b9c <_ZNSt7__cxx1112basic_stringIcSt11char_traitsIcESaIcEEC1IS3_EEPKcRKS3_>:
    6b9c:	f3 0f 1e fa          	endbr64
    6ba0:	55                   	push   %rbp
    6ba1:	48 89 e5             	mov    %rsp,%rbp
    6ba4:	53                   	push   %rbx
    6ba5:	48 83 ec 38          	sub    $0x38,%rsp
    6ba9:	48 89 7d d8          	mov    %rdi,-0x28(%rbp)
    6bad:	48 89 75 d0          	mov    %rsi,-0x30(%rbp)
    6bb1:	48 89 55 c8          	mov    %rdx,-0x38(%rbp)
    6bb5:	48 8b 5d d8          	mov    -0x28(%rbp),%rbx
    6bb9:	48 8b 45 d8          	mov    -0x28(%rbp),%rax
    6bbd:	48 89 c7             	mov    %rax,%rdi
    6bc0:	e8 8b ee ff ff       	call   5a50 <_ZNSt7__cxx1112basic_stringIcSt11char_traitsIcESaIcEE13_M_local_dataEv@plt>
    6bc5:	48 89 c1             	mov    %rax,%rcx
    6bc8:	48 8b 45 c8          	mov    -0x38(%rbp),%rax
    6bcc:	48 89 c2             	mov    %rax,%rdx
    6bcf:	48 89 ce             	mov    %rcx,%rsi
    6bd2:	48 89 df             	mov    %rbx,%rdi
    6bd5:	e8 46 ef ff ff       	call   5b20 <_ZNSt7__cxx1112basic_stringIcSt11char_traitsIcESaIcEE12_Alloc_hiderC1EPcRKS3_@plt>
    6bda:	48 83 7d d0 00       	cmpq   $0x0,-0x30(%rbp)
    6bdf:	75 0f                	jne    6bf0 <_ZNSt7__cxx1112basic_stringIcSt11char_traitsIcESaIcEEC1IS3_EEPKcRKS3_+0x54>
    6be1:	48 8d 05 70 06 03 00 	lea    0x30670(%rip),%rax        # 37258 <_IO_stdin_used+0x258>
    6be8:	48 89 c7             	mov    %rax,%rdi
    6beb:	e8 20 ee ff ff       	call   5a10 <_ZSt19__throw_logic_errorPKc@plt>
    6bf0:	48 8b 45 d0          	mov    -0x30(%rbp),%rax
    6bf4:	48 89 c7             	mov    %rax,%rdi
    6bf7:	e8 77 fe ff ff       	call   6a73 <_ZNSt11char_traitsIcE6lengthEPKc>
    6bfc:	48 8b 55 d0          	mov    -0x30(%rbp),%rdx
    6c00:	48 01 d0             	add    %rdx,%rax
    6c03:	48 89 45 e8          	mov    %rax,-0x18(%rbp)
    6c07:	48 8b 55 e8          	mov    -0x18(%rbp),%rdx
    6c0b:	48 8b 4d d0          	mov    -0x30(%rbp),%rcx
    6c0f:	48 8b 45 d8          	mov    -0x28(%rbp),%rax
    6c13:	48 89 ce             	mov    %rcx,%rsi
    6c16:	48 89 c7             	mov    %rax,%rdi
    6c19:	e8 70 04 00 00       	call   708e <_ZNSt7__cxx1112basic_stringIcSt11char_traitsIcESaIcEE12_M_constructIPKcEEvT_S8_St20forward_iterator_tag>
    6c1e:	eb 1e                	jmp    6c3e <_ZNSt7__cxx1112basic_stringIcSt11char_traitsIcESaIcEEC1IS3_EEPKcRKS3_+0xa2>
    6c20:	f3 0f 1e fa          	endbr64
    6c24:	48 89 c3             	mov    %rax,%rbx
    6c27:	48 8b 45 d8          	mov    -0x28(%rbp),%rax
    6c2b:	48 89 c7             	mov    %rax,%rdi
    6c2e:	e8 41 ff ff ff       	call   6b74 <_ZNSt7__cxx1112basic_stringIcSt11char_traitsIcESaIcEE12_Alloc_hiderD1Ev>
    6c33:	48 89 d8             	mov    %rbx,%rax
    6c36:	48 89 c7             	mov    %rax,%rdi
    6c39:	e8 82 f1 ff ff       	call   5dc0 <_Unwind_Resume@plt>
    6c3e:	48 8b 5d f8          	mov    -0x8(%rbp),%rbx
    6c42:	c9                   	leave
    6c43:	c3                   	ret

0000000000006c44 <_ZSt4moveIRNSt7__cxx1112basic_stringIcSt11char_traitsIcESaIcEEEEONSt16remove_referenceIT_E4typeEOS8_>:
    6c44:	f3 0f 1e fa          	endbr64
    6c48:	55                   	push   %rbp
    6c49:	48 89 e5             	mov    %rsp,%rbp
    6c4c:	48 89 7d f8          	mov    %rdi,-0x8(%rbp)
    6c50:	48 8b 45 f8          	mov    -0x8(%rbp),%rax
    6c54:	5d                   	pop    %rbp
    6c55:	c3                   	ret

0000000000006c56 <_ZSteqIcSt11char_traitsIcESaIcEEbRKNSt7__cxx1112basic_stringIT_T0_T1_EEPKS5_>:
    6c56:	f3 0f 1e fa          	endbr64
    6c5a:	55                   	push   %rbp
    6c5b:	48 89 e5             	mov    %rsp,%rbp
    6c5e:	53                   	push   %rbx
    6c5f:	48 83 ec 18          	sub    $0x18,%rsp
    6c63:	48 89 7d e8          	mov    %rdi,-0x18(%rbp)
    6c67:	48 89 75 e0          	mov    %rsi,-0x20(%rbp)
    6c6b:	48 8b 45 e8          	mov    -0x18(%rbp),%rax
    6c6f:	48 89 c7             	mov    %rax,%rdi
    6c72:	e8 79 ed ff ff       	call   59f0 <_ZNKSt7__cxx1112basic_stringIcSt11char_traitsIcESaIcEE4sizeEv@plt>
    6c77:	48 89 c3             	mov    %rax,%rbx
    6c7a:	48 8b 45 e0          	mov    -0x20(%rbp),%rax
    6c7e:	48 89 c7             	mov    %rax,%rdi
    6c81:	e8 ed fd ff ff       	call   6a73 <_ZNSt11char_traitsIcE6lengthEPKc>
    6c86:	48 39 c3             	cmp    %rax,%rbx
    6c89:	75 3b                	jne    6cc6 <_ZSteqIcSt11char_traitsIcESaIcEEbRKNSt7__cxx1112basic_stringIT_T0_T1_EEPKS5_+0x70>
    6c8b:	48 8b 45 e8          	mov    -0x18(%rbp),%rax
    6c8f:	48 89 c7             	mov    %rax,%rdi
    6c92:	e8 59 ed ff ff       	call   59f0 <_ZNKSt7__cxx1112basic_stringIcSt11char_traitsIcESaIcEE4sizeEv@plt>
    6c97:	48 89 c3             	mov    %rax,%rbx
    6c9a:	48 8b 45 e8          	mov    -0x18(%rbp),%rax
    6c9e:	48 89 c7             	mov    %rax,%rdi
    6ca1:	e8 8a ef ff ff       	call   5c30 <_ZNKSt7__cxx1112basic_stringIcSt11char_traitsIcESaIcEE4dataEv@plt>
    6ca6:	48 89 c1             	mov    %rax,%rcx
    6ca9:	48 8b 45 e0          	mov    -0x20(%rbp),%rax
    6cad:	48 89 da             	mov    %rbx,%rdx
    6cb0:	48 89 c6             	mov    %rax,%rsi
    6cb3:	48 89 cf             	mov    %rcx,%rdi
    6cb6:	e8 f4 fc ff ff       	call   69af <_ZNSt11char_traitsIcE7compareEPKcS2_m>
    6cbb:	85 c0                	test   %eax,%eax
    6cbd:	75 07                	jne    6cc6 <_ZSteqIcSt11char_traitsIcESaIcEEbRKNSt7__cxx1112basic_stringIT_T0_T1_EEPKS5_+0x70>
    6cbf:	b8 01 00 00 00       	mov    $0x1,%eax
    6cc4:	eb 05                	jmp    6ccb <_ZSteqIcSt11char_traitsIcESaIcEEbRKNSt7__cxx1112basic_stringIT_T0_T1_EEPKS5_+0x75>
    6cc6:	b8 00 00 00 00       	mov    $0x0,%eax
    6ccb:	48 8b 5d f8          	mov    -0x8(%rbp),%rbx
    6ccf:	c9                   	leave
    6cd0:	c3                   	ret

0000000000006cd1 <_ZStplIcSt11char_traitsIcESaIcEENSt7__cxx1112basic_stringIT_T0_T1_EERKS8_PKS5_>:
    6cd1:	f3 0f 1e fa          	endbr64
    6cd5:	55                   	push   %rbp
    6cd6:	48 89 e5             	mov    %rsp,%rbp
    6cd9:	41 54                	push   %r12
    6cdb:	53                   	push   %rbx
    6cdc:	48 83 ec 30          	sub    $0x30,%rsp
    6ce0:	48 89 7d d8          	mov    %rdi,-0x28(%rbp)
    6ce4:	48 89 75 d0          	mov    %rsi,-0x30(%rbp)
    6ce8:	48 89 55 c8          	mov    %rdx,-0x38(%rbp)
    6cec:	64 48 8b 04 25 28 00 	mov    %fs:0x28,%rax
    6cf3:	00 00 
    6cf5:	48 89 45 e8          	mov    %rax,-0x18(%rbp)
    6cf9:	31 c0                	xor    %eax,%eax
    6cfb:	48 8d 45 e7          	lea    -0x19(%rbp),%rax
    6cff:	48 8b 55 d0          	mov    -0x30(%rbp),%rdx
    6d03:	48 89 d6             	mov    %rdx,%rsi
    6d06:	48 89 c7             	mov    %rax,%rdi
    6d09:	e8 42 eb ff ff       	call   5850 <_ZNKSt7__cxx1112basic_stringIcSt11char_traitsIcESaIcEE13get_allocatorEv@plt>
    6d0e:	48 8b 45 c8          	mov    -0x38(%rbp),%rax
    6d12:	48 89 c7             	mov    %rax,%rdi
    6d15:	e8 59 fd ff ff       	call   6a73 <_ZNSt11char_traitsIcE6lengthEPKc>
    6d1a:	49 89 c4             	mov    %rax,%r12
    6d1d:	48 8b 45 d0          	mov    -0x30(%rbp),%rax
    6d21:	48 89 c7             	mov    %rax,%rdi
    6d24:	e8 c7 ec ff ff       	call   59f0 <_ZNKSt7__cxx1112basic_stringIcSt11char_traitsIcESaIcEE4sizeEv@plt>
    6d29:	48 89 c3             	mov    %rax,%rbx
    6d2c:	48 8b 45 d0          	mov    -0x30(%rbp),%rax
    6d30:	48 89 c7             	mov    %rax,%rdi
    6d33:	e8 38 eb ff ff       	call   5870 <_ZNKSt7__cxx1112basic_stringIcSt11char_traitsIcESaIcEE5c_strEv@plt>
    6d38:	48 89 c6             	mov    %rax,%rsi
    6d3b:	48 8b 45 d8          	mov    -0x28(%rbp),%rax
    6d3f:	48 8d 4d e7          	lea    -0x19(%rbp),%rcx
    6d43:	48 8b 55 c8          	mov    -0x38(%rbp),%rdx
    6d47:	49 89 c9             	mov    %rcx,%r9
    6d4a:	4d 89 e0             	mov    %r12,%r8
    6d4d:	48 89 d1             	mov    %rdx,%rcx
    6d50:	48 89 da             	mov    %rbx,%rdx
    6d53:	48 89 c7             	mov    %rax,%rdi
    6d56:	e8 4c 04 00 00       	call   71a7 <_ZSt12__str_concatINSt7__cxx1112basic_stringIcSt11char_traitsIcESaIcEEEET_PKNS6_10value_typeENS6_9size_typeES9_SA_RKNS6_14allocator_typeE>
    6d5b:	48 8d 45 e7          	lea    -0x19(%rbp),%rax
    6d5f:	48 89 c7             	mov    %rax,%rdi
    6d62:	e8 cb 02 00 00       	call   7032 <_ZNSt15__new_allocatorIcED1Ev>
    6d67:	90                   	nop
    6d68:	90                   	nop
    6d69:	48 8b 45 e8          	mov    -0x18(%rbp),%rax
    6d6d:	64 48 2b 04 25 28 00 	sub    %fs:0x28,%rax
    6d74:	00 00 
    6d76:	74 3a                	je     6db2 <_ZStplIcSt11char_traitsIcESaIcEENSt7__cxx1112basic_stringIT_T0_T1_EERKS8_PKS5_+0xe1>
    6d78:	eb 33                	jmp    6dad <_ZStplIcSt11char_traitsIcESaIcEENSt7__cxx1112basic_stringIT_T0_T1_EERKS8_PKS5_+0xdc>
    6d7a:	f3 0f 1e fa          	endbr64
    6d7e:	48 89 c3             	mov    %rax,%rbx
    6d81:	48 8d 45 e7          	lea    -0x19(%rbp),%rax
    6d85:	48 89 c7             	mov    %rax,%rdi
    6d88:	e8 a5 02 00 00       	call   7032 <_ZNSt15__new_allocatorIcED1Ev>
    6d8d:	90                   	nop
    6d8e:	48 89 d8             	mov    %rbx,%rax
    6d91:	48 8b 55 e8          	mov    -0x18(%rbp),%rdx
    6d95:	64 48 2b 14 25 28 00 	sub    %fs:0x28,%rdx
    6d9c:	00 00 
    6d9e:	74 05                	je     6da5 <_ZStplIcSt11char_traitsIcESaIcEENSt7__cxx1112basic_stringIT_T0_T1_EERKS8_PKS5_+0xd4>
    6da0:	e8 db ed ff ff       	call   5b80 <__stack_chk_fail@plt>
    6da5:	48 89 c7             	mov    %rax,%rdi
    6da8:	e8 13 f0 ff ff       	call   5dc0 <_Unwind_Resume@plt>
    6dad:	e8 ce ed ff ff       	call   5b80 <__stack_chk_fail@plt>
    6db2:	48 8b 45 d8          	mov    -0x28(%rbp),%rax
    6db6:	48 83 c4 30          	add    $0x30,%rsp
    6dba:	5b                   	pop    %rbx
    6dbb:	41 5c                	pop    %r12
    6dbd:	5d                   	pop    %rbp
    6dbe:	c3                   	ret

0000000000006dbf <_ZStplIcSt11char_traitsIcESaIcEENSt7__cxx1112basic_stringIT_T0_T1_EES5_RKS8_>:
    6dbf:	f3 0f 1e fa          	endbr64
    6dc3:	55                   	push   %rbp
    6dc4:	48 89 e5             	mov    %rsp,%rbp
    6dc7:	53                   	push   %rbx
    6dc8:	48 83 ec 38          	sub    $0x38,%rsp
    6dcc:	48 89 7d d8          	mov    %rdi,-0x28(%rbp)
    6dd0:	89 f0                	mov    %esi,%eax
    6dd2:	48 89 55 c8          	mov    %rdx,-0x38(%rbp)
    6dd6:	88 45 d4             	mov    %al,-0x2c(%rbp)
    6dd9:	64 48 8b 04 25 28 00 	mov    %fs:0x28,%rax
    6de0:	00 00 
    6de2:	48 89 45 e8          	mov    %rax,-0x18(%rbp)
    6de6:	31 c0                	xor    %eax,%eax
    6de8:	48 8d 45 e7          	lea    -0x19(%rbp),%rax
    6dec:	48 8b 55 c8          	mov    -0x38(%rbp),%rdx
    6df0:	48 89 d6             	mov    %rdx,%rsi
    6df3:	48 89 c7             	mov    %rax,%rdi
    6df6:	e8 55 ea ff ff       	call   5850 <_ZNKSt7__cxx1112basic_stringIcSt11char_traitsIcESaIcEE13get_allocatorEv@plt>
    6dfb:	48 8b 45 c8          	mov    -0x38(%rbp),%rax
    6dff:	48 89 c7             	mov    %rax,%rdi
    6e02:	e8 e9 eb ff ff       	call   59f0 <_ZNKSt7__cxx1112basic_stringIcSt11char_traitsIcESaIcEE4sizeEv@plt>
    6e07:	48 89 c3             	mov    %rax,%rbx
    6e0a:	48 8b 45 c8          	mov    -0x38(%rbp),%rax
    6e0e:	48 89 c7             	mov    %rax,%rdi
    6e11:	e8 5a ea ff ff       	call   5870 <_ZNKSt7__cxx1112basic_stringIcSt11char_traitsIcESaIcEE5c_strEv@plt>
    6e16:	48 89 c2             	mov    %rax,%rdx
    6e19:	48 8b 45 d8          	mov    -0x28(%rbp),%rax
    6e1d:	48 8d 4d e7          	lea    -0x19(%rbp),%rcx
    6e21:	48 8d 75 d4          	lea    -0x2c(%rbp),%rsi
    6e25:	49 89 c9             	mov    %rcx,%r9
    6e28:	49 89 d8             	mov    %rbx,%r8
    6e2b:	48 89 d1             	mov    %rdx,%rcx
    6e2e:	ba 01 00 00 00       	mov    $0x1,%edx
    6e33:	48 89 c7             	mov    %rax,%rdi
    6e36:	e8 6c 03 00 00       	call   71a7 <_ZSt12__str_concatINSt7__cxx1112basic_stringIcSt11char_traitsIcESaIcEEEET_PKNS6_10value_typeENS6_9size_typeES9_SA_RKNS6_14allocator_typeE>
    6e3b:	48 8d 45 e7          	lea    -0x19(%rbp),%rax
    6e3f:	48 89 c7             	mov    %rax,%rdi
    6e42:	e8 eb 01 00 00       	call   7032 <_ZNSt15__new_allocatorIcED1Ev>
    6e47:	90                   	nop
    6e48:	90                   	nop
    6e49:	48 8b 45 e8          	mov    -0x18(%rbp),%rax
    6e4d:	64 48 2b 04 25 28 00 	sub    %fs:0x28,%rax
    6e54:	00 00 
    6e56:	74 3a                	je     6e92 <_ZStplIcSt11char_traitsIcESaIcEENSt7__cxx1112basic_stringIT_T0_T1_EES5_RKS8_+0xd3>
    6e58:	eb 33                	jmp    6e8d <_ZStplIcSt11char_traitsIcESaIcEENSt7__cxx1112basic_stringIT_T0_T1_EES5_RKS8_+0xce>
    6e5a:	f3 0f 1e fa          	endbr64
    6e5e:	48 89 c3             	mov    %rax,%rbx
    6e61:	48 8d 45 e7          	lea    -0x19(%rbp),%rax
    6e65:	48 89 c7             	mov    %rax,%rdi
    6e68:	e8 c5 01 00 00       	call   7032 <_ZNSt15__new_allocatorIcED1Ev>
    6e6d:	90                   	nop
    6e6e:	48 89 d8             	mov    %rbx,%rax
    6e71:	48 8b 55 e8          	mov    -0x18(%rbp),%rdx
    6e75:	64 48 2b 14 25 28 00 	sub    %fs:0x28,%rdx
    6e7c:	00 00 
    6e7e:	74 05                	je     6e85 <_ZStplIcSt11char_traitsIcESaIcEENSt7__cxx1112basic_stringIT_T0_T1_EES5_RKS8_+0xc6>
    6e80:	e8 fb ec ff ff       	call   5b80 <__stack_chk_fail@plt>
    6e85:	48 89 c7             	mov    %rax,%rdi
    6e88:	e8 33 ef ff ff       	call   5dc0 <_Unwind_Resume@plt>
    6e8d:	e8 ee ec ff ff       	call   5b80 <__stack_chk_fail@plt>
    6e92:	48 8b 45 d8          	mov    -0x28(%rbp),%rax
    6e96:	48 8b 5d f8          	mov    -0x8(%rbp),%rbx
    6e9a:	c9                   	leave
    6e9b:	c3                   	ret

0000000000006e9c <_ZStplIcSt11char_traitsIcESaIcEENSt7__cxx1112basic_stringIT_T0_T1_EEOS8_S5_>:
    6e9c:	f3 0f 1e fa          	endbr64
    6ea0:	55                   	push   %rbp
    6ea1:	48 89 e5             	mov    %rsp,%rbp
    6ea4:	48 83 ec 20          	sub    $0x20,%rsp
    6ea8:	48 89 7d f8          	mov    %rdi,-0x8(%rbp)
    6eac:	48 89 75 f0          	mov    %rsi,-0x10(%rbp)
    6eb0:	89 d0                	mov    %edx,%eax
    6eb2:	88 45 ec             	mov    %al,-0x14(%rbp)
    6eb5:	0f be 55 ec          	movsbl -0x14(%rbp),%edx
    6eb9:	48 8b 45 f0          	mov    -0x10(%rbp),%rax
    6ebd:	be 01 00 00 00       	mov    $0x1,%esi
    6ec2:	48 89 c7             	mov    %rax,%rdi
    6ec5:	e8 66 ec ff ff       	call   5b30 <_ZNSt7__cxx1112basic_stringIcSt11char_traitsIcESaIcEE6appendEmc@plt>
    6eca:	48 89 c7             	mov    %rax,%rdi
    6ecd:	e8 72 fd ff ff       	call   6c44 <_ZSt4moveIRNSt7__cxx1112basic_stringIcSt11char_traitsIcESaIcEEEEONSt16remove_referenceIT_E4typeEOS8_>
    6ed2:	48 89 c2             	mov    %rax,%rdx
    6ed5:	48 8b 45 f8          	mov    -0x8(%rbp),%rax
    6ed9:	48 89 d6             	mov    %rdx,%rsi
    6edc:	48 89 c7             	mov    %rax,%rdi
    6edf:	e8 7c ea ff ff       	call   5960 <_ZNSt7__cxx1112basic_stringIcSt11char_traitsIcESaIcEEC1EOS4_@plt>
    6ee4:	48 8b 45 f8          	mov    -0x8(%rbp),%rax
    6ee8:	c9                   	leave
    6ee9:	c3                   	ret

0000000000006eea <_ZNSt19istreambuf_iteratorIcSt11char_traitsIcEEC1ERSi>:
    6eea:	f3 0f 1e fa          	endbr64
    6eee:	55                   	push   %rbp
    6eef:	48 89 e5             	mov    %rsp,%rbp
    6ef2:	48 83 ec 10          	sub    $0x10,%rsp
    6ef6:	48 89 7d f8          	mov    %rdi,-0x8(%rbp)
    6efa:	48 89 75 f0          	mov    %rsi,-0x10(%rbp)
    6efe:	48 8b 45 f0          	mov    -0x10(%rbp),%rax
    6f02:	48 8b 00             	mov    (%rax),%rax
    6f05:	48 83 e8 18          	sub    $0x18,%rax
    6f09:	48 8b 00             	mov    (%rax),%rax
    6f0c:	48 89 c2             	mov    %rax,%rdx
    6f0f:	48 8b 45 f0          	mov    -0x10(%rbp),%rax
    6f13:	48 01 d0             	add    %rdx,%rax
    6f16:	48 89 c7             	mov    %rax,%rdi
    6f19:	e8 92 e9 ff ff       	call   58b0 <_ZNKSt9basic_iosIcSt11char_traitsIcEE5rdbufEv@plt>
    6f1e:	48 8b 55 f8          	mov    -0x8(%rbp),%rdx
    6f22:	48 89 02             	mov    %rax,(%rdx)
    6f25:	e8 b6 fb ff ff       	call   6ae0 <_ZNSt11char_traitsIcE3eofEv>
    6f2a:	48 8b 55 f8          	mov    -0x8(%rbp),%rdx
    6f2e:	89 42 08             	mov    %eax,0x8(%rdx)
    6f31:	90                   	nop
    6f32:	c9                   	leave
    6f33:	c3                   	ret

0000000000006f34 <_ZNSt19istreambuf_iteratorIcSt11char_traitsIcEEC1Ev>:
    6f34:	f3 0f 1e fa          	endbr64
    6f38:	55                   	push   %rbp
    6f39:	48 89 e5             	mov    %rsp,%rbp
    6f3c:	48 83 ec 10          	sub    $0x10,%rsp
    6f40:	48 89 7d f8          	mov    %rdi,-0x8(%rbp)
    6f44:	48 8b 45 f8          	mov    -0x8(%rbp),%rax
    6f48:	48 c7 00 00 00 00 00 	movq   $0x0,(%rax)
    6f4f:	e8 8c fb ff ff       	call   6ae0 <_ZNSt11char_traitsIcE3eofEv>
    6f54:	48 8b 55 f8          	mov    -0x8(%rbp),%rdx
    6f58:	89 42 08             	mov    %eax,0x8(%rdx)
    6f5b:	90                   	nop
    6f5c:	c9                   	leave
    6f5d:	c3                   	ret

0000000000006f5e <_ZNSt7__cxx1112basic_stringIcSt11char_traitsIcESaIcEEC1ISt19istreambuf_iteratorIcS2_EvEET_S8_RKS3_>:
    6f5e:	f3 0f 1e fa          	endbr64
    6f62:	55                   	push   %rbp
    6f63:	48 89 e5             	mov    %rsp,%rbp
    6f66:	53                   	push   %rbx
    6f67:	48 83 ec 38          	sub    $0x38,%rsp
    6f6b:	48 89 7d e8          	mov    %rdi,-0x18(%rbp)
    6f6f:	48 89 f0             	mov    %rsi,%rax
    6f72:	48 89 d6             	mov    %rdx,%rsi
    6f75:	48 89 f2             	mov    %rsi,%rdx
    6f78:	48 89 45 d0          	mov    %rax,-0x30(%rbp)
    6f7c:	48 89 55 d8          	mov    %rdx,-0x28(%rbp)
    6f80:	48 89 c8             	mov    %rcx,%rax
    6f83:	4c 89 c1             	mov    %r8,%rcx
    6f86:	48 89 ca             	mov    %rcx,%rdx
    6f89:	48 89 45 c0          	mov    %rax,-0x40(%rbp)
    6f8d:	48 89 55 c8          	mov    %rdx,-0x38(%rbp)
    6f91:	4c 89 4d e0          	mov    %r9,-0x20(%rbp)
    6f95:	48 8b 5d e8          	mov    -0x18(%rbp),%rbx
    6f99:	48 8b 45 e8          	mov    -0x18(%rbp),%rax
    6f9d:	48 89 c7             	mov    %rax,%rdi
    6fa0:	e8 ab ea ff ff       	call   5a50 <_ZNSt7__cxx1112basic_stringIcSt11char_traitsIcESaIcEE13_M_local_dataEv@plt>
    6fa5:	48 89 c1             	mov    %rax,%rcx
    6fa8:	48 8b 45 e0          	mov    -0x20(%rbp),%rax
    6fac:	48 89 c2             	mov    %rax,%rdx
    6faf:	48 89 ce             	mov    %rcx,%rsi
    6fb2:	48 89 df             	mov    %rbx,%rdi
    6fb5:	e8 66 eb ff ff       	call   5b20 <_ZNSt7__cxx1112basic_stringIcSt11char_traitsIcESaIcEE12_Alloc_hiderC1EPcRKS3_@plt>
    6fba:	48 8b 45 e8          	mov    -0x18(%rbp),%rax
    6fbe:	48 c7 40 08 00 00 00 	movq   $0x0,0x8(%rax)
    6fc5:	00 
    6fc6:	90                   	nop
    6fc7:	48 8b 4d c0          	mov    -0x40(%rbp),%rcx
    6fcb:	48 8b 7d c8          	mov    -0x38(%rbp),%rdi
    6fcf:	48 8b 75 d0          	mov    -0x30(%rbp),%rsi
    6fd3:	48 8b 55 d8          	mov    -0x28(%rbp),%rdx
    6fd7:	48 8b 45 e8          	mov    -0x18(%rbp),%rax
    6fdb:	49 89 f8             	mov    %rdi,%r8
    6fde:	48 89 c7             	mov    %rax,%rdi
    6fe1:	e8 30 03 00 00       	call   7316 <_ZNSt7__cxx1112basic_stringIcSt11char_traitsIcESaIcEE12_M_constructISt19istreambuf_iteratorIcS2_EEEvT_S8_St18input_iterator_tag>
    6fe6:	eb 1e                	jmp    7006 <_ZNSt7__cxx1112basic_stringIcSt11char_traitsIcESaIcEEC1ISt19istreambuf_iteratorIcS2_EvEET_S8_RKS3_+0xa8>
    6fe8:	f3 0f 1e fa          	endbr64
    6fec:	48 89 c3             	mov    %rax,%rbx
    6fef:	48 8b 45 e8          	mov    -0x18(%rbp),%rax
    6ff3:	48 89 c7             	mov    %rax,%rdi
    6ff6:	e8 79 fb ff ff       	call   6b74 <_ZNSt7__cxx1112basic_stringIcSt11char_traitsIcESaIcEE12_Alloc_hiderD1Ev>
    6ffb:	48 89 d8             	mov    %rbx,%rax
    6ffe:	48 89 c7             	mov    %rax,%rdi
    7001:	e8 ba ed ff ff       	call   5dc0 <_Unwind_Resume@plt>
    7006:	48 8b 5d f8          	mov    -0x8(%rbp),%rbx
    700a:	c9                   	leave
    700b:	c3                   	ret

000000000000700c <_ZN9__gnu_cxx11char_traitsIcE2eqERKcS3_>:
    700c:	f3 0f 1e fa          	endbr64
    7010:	55                   	push   %rbp
    7011:	48 89 e5             	mov    %rsp,%rbp
    7014:	48 89 7d f8          	mov    %rdi,-0x8(%rbp)
    7018:	48 89 75 f0          	mov    %rsi,-0x10(%rbp)
    701c:	48 8b 45 f8          	mov    -0x8(%rbp),%rax
    7020:	0f b6 10             	movzbl (%rax),%edx
    7023:	48 8b 45 f0          	mov    -0x10(%rbp),%rax
    7027:	0f b6 00             	movzbl (%rax),%eax
    702a:	38 c2                	cmp    %al,%dl
    702c:	0f 94 c0             	sete   %al
    702f:	5d                   	pop    %rbp
    7030:	c3                   	ret
    7031:	90                   	nop

0000000000007032 <_ZNSt15__new_allocatorIcED1Ev>:
    7032:	f3 0f 1e fa          	endbr64
    7036:	55                   	push   %rbp
    7037:	48 89 e5             	mov    %rsp,%rbp
    703a:	48 89 7d f8          	mov    %rdi,-0x8(%rbp)
    703e:	90                   	nop
    703f:	5d                   	pop    %rbp
    7040:	c3                   	ret
    7041:	90                   	nop

0000000000007042 <_ZZNSt7__cxx1112basic_stringIcSt11char_traitsIcESaIcEE12_M_constructIPKcEEvT_S8_St20forward_iterator_tagEN6_GuardC1EPS4_>:
    7042:	f3 0f 1e fa          	endbr64
    7046:	55                   	push   %rbp
    7047:	48 89 e5             	mov    %rsp,%rbp
    704a:	48 89 7d f8          	mov    %rdi,-0x8(%rbp)
    704e:	48 89 75 f0          	mov    %rsi,-0x10(%rbp)
    7052:	48 8b 45 f8          	mov    -0x8(%rbp),%rax
    7056:	48 8b 55 f0          	mov    -0x10(%rbp),%rdx
    705a:	48 89 10             	mov    %rdx,(%rax)
    705d:	90                   	nop
    705e:	5d                   	pop    %rbp
    705f:	c3                   	ret

0000000000007060 <_ZZNSt7__cxx1112basic_stringIcSt11char_traitsIcESaIcEE12_M_constructIPKcEEvT_S8_St20forward_iterator_tagEN6_GuardD1Ev>:
    7060:	f3 0f 1e fa          	endbr64
    7064:	55                   	push   %rbp
    7065:	48 89 e5             	mov    %rsp,%rbp
    7068:	48 83 ec 10          	sub    $0x10,%rsp
    706c:	48 89 7d f8          	mov    %rdi,-0x8(%rbp)
    7070:	48 8b 45 f8          	mov    -0x8(%rbp),%rax
    7074:	48 8b 00             	mov    (%rax),%rax
    7077:	48 85 c0             	test   %rax,%rax
    707a:	74 0f                	je     708b <_ZZNSt7__cxx1112basic_stringIcSt11char_traitsIcESaIcEE12_M_constructIPKcEEvT_S8_St20forward_iterator_tagEN6_GuardD1Ev+0x2b>
    707c:	48 8b 45 f8          	mov    -0x8(%rbp),%rax
    7080:	48 8b 00             	mov    (%rax),%rax
    7083:	48 89 c7             	mov    %rax,%rdi
    7086:	e8 55 eb ff ff       	call   5be0 <_ZNSt7__cxx1112basic_stringIcSt11char_traitsIcESaIcEE10_M_disposeEv@plt>
    708b:	90                   	nop
    708c:	c9                   	leave
    708d:	c3                   	ret

000000000000708e <_ZNSt7__cxx1112basic_stringIcSt11char_traitsIcESaIcEE12_M_constructIPKcEEvT_S8_St20forward_iterator_tag>:
    708e:	f3 0f 1e fa          	endbr64
    7092:	55                   	push   %rbp
    7093:	48 89 e5             	mov    %rsp,%rbp
    7096:	48 83 ec 60          	sub    $0x60,%rsp
    709a:	48 89 7d b8          	mov    %rdi,-0x48(%rbp)
    709e:	48 89 75 b0          	mov    %rsi,-0x50(%rbp)
    70a2:	48 89 55 a8          	mov    %rdx,-0x58(%rbp)
    70a6:	64 48 8b 04 25 28 00 	mov    %fs:0x28,%rax
    70ad:	00 00 
    70af:	48 89 45 f8          	mov    %rax,-0x8(%rbp)
    70b3:	31 c0                	xor    %eax,%eax
    70b5:	48 8b 45 b0          	mov    -0x50(%rbp),%rax
    70b9:	48 89 45 d0          	mov    %rax,-0x30(%rbp)
    70bd:	48 8b 45 a8          	mov    -0x58(%rbp),%rax
    70c1:	48 89 45 d8          	mov    %rax,-0x28(%rbp)
    70c5:	90                   	nop
    70c6:	48 8b 45 d0          	mov    -0x30(%rbp),%rax
    70ca:	48 89 45 e0          	mov    %rax,-0x20(%rbp)
    70ce:	48 8b 45 d8          	mov    -0x28(%rbp),%rax
    70d2:	48 89 45 e8          	mov    %rax,-0x18(%rbp)
    70d6:	48 8b 45 e8          	mov    -0x18(%rbp),%rax
    70da:	48 2b 45 e0          	sub    -0x20(%rbp),%rax
    70de:	90                   	nop
    70df:	48 89 45 c8          	mov    %rax,-0x38(%rbp)
    70e3:	48 8b 45 c8          	mov    -0x38(%rbp),%rax
    70e7:	48 83 f8 0f          	cmp    $0xf,%rax
    70eb:	76 3f                	jbe    712c <_ZNSt7__cxx1112basic_stringIcSt11char_traitsIcESaIcEE12_M_constructIPKcEEvT_S8_St20forward_iterator_tag+0x9e>
    70ed:	48 8d 4d c8          	lea    -0x38(%rbp),%rcx
    70f1:	48 8b 45 b8          	mov    -0x48(%rbp),%rax
    70f5:	ba 00 00 00 00       	mov    $0x0,%edx
    70fa:	48 89 ce             	mov    %rcx,%rsi
    70fd:	48 89 c7             	mov    %rax,%rdi
    7100:	e8 cb ec ff ff       	call   5dd0 <_ZNSt7__cxx1112basic_stringIcSt11char_traitsIcESaIcEE9_M_createERmm@plt>
    7105:	48 89 c2             	mov    %rax,%rdx
    7108:	48 8b 45 b8          	mov    -0x48(%rbp),%rax
    710c:	48 89 d6             	mov    %rdx,%rsi
    710f:	48 89 c7             	mov    %rax,%rdi
    7112:	e8 49 e9 ff ff       	call   5a60 <_ZNSt7__cxx1112basic_stringIcSt11char_traitsIcESaIcEE7_M_dataEPc@plt>
    7117:	48 8b 55 c8          	mov    -0x38(%rbp),%rdx
    711b:	48 8b 45 b8          	mov    -0x48(%rbp),%rax
    711f:	48 89 d6             	mov    %rdx,%rsi
    7122:	48 89 c7             	mov    %rax,%rdi
    7125:	e8 f6 ec ff ff       	call   5e20 <_ZNSt7__cxx1112basic_stringIcSt11char_traitsIcESaIcEE11_M_capacityEm@plt>
    712a:	eb 09                	jmp    7135 <_ZNSt7__cxx1112basic_stringIcSt11char_traitsIcESaIcEE12_M_constructIPKcEEvT_S8_St20forward_iterator_tag+0xa7>
    712c:	48 8b 45 b8          	mov    -0x48(%rbp),%rax
    7130:	48 89 45 f0          	mov    %rax,-0x10(%rbp)
    7134:	90                   	nop
    7135:	48 8b 55 b8          	mov    -0x48(%rbp),%rdx
    7139:	48 8d 45 d0          	lea    -0x30(%rbp),%rax
    713d:	48 89 d6             	mov    %rdx,%rsi
    7140:	48 89 c7             	mov    %rax,%rdi
    7143:	e8 fa fe ff ff       	call   7042 <_ZZNSt7__cxx1112basic_stringIcSt11char_traitsIcESaIcEE12_M_constructIPKcEEvT_S8_St20forward_iterator_tagEN6_GuardC1EPS4_>
    7148:	48 8b 45 b8          	mov    -0x48(%rbp),%rax
    714c:	48 89 c7             	mov    %rax,%rdi
    714f:	e8 ec e9 ff ff       	call   5b40 <_ZNKSt7__cxx1112basic_stringIcSt11char_traitsIcESaIcEE7_M_dataEv@plt>
    7154:	48 89 c1             	mov    %rax,%rcx
    7157:	48 8b 55 a8          	mov    -0x58(%rbp),%rdx
    715b:	48 8b 45 b0          	mov    -0x50(%rbp),%rax
    715f:	48 89 c6             	mov    %rax,%rsi
    7162:	48 89 cf             	mov    %rcx,%rdi
    7165:	e8 06 ea ff ff       	call   5b70 <_ZNSt7__cxx1112basic_stringIcSt11char_traitsIcESaIcEE13_S_copy_charsEPcPKcS7_@plt>
    716a:	48 c7 45 d0 00 00 00 	movq   $0x0,-0x30(%rbp)
    7171:	00 
    7172:	48 8b 55 c8          	mov    -0x38(%rbp),%rdx
    7176:	48 8b 45 b8          	mov    -0x48(%rbp),%rax
    717a:	48 89 d6             	mov    %rdx,%rsi
    717d:	48 89 c7             	mov    %rax,%rdi
    7180:	e8 4b e8 ff ff       	call   59d0 <_ZNSt7__cxx1112basic_stringIcSt11char_traitsIcESaIcEE13_M_set_lengthEm@plt>
    7185:	48 8d 45 d0          	lea    -0x30(%rbp),%rax
    7189:	48 89 c7             	mov    %rax,%rdi
    718c:	e8 cf fe ff ff       	call   7060 <_ZZNSt7__cxx1112basic_stringIcSt11char_traitsIcESaIcEE12_M_constructIPKcEEvT_S8_St20forward_iterator_tagEN6_GuardD1Ev>
    7191:	48 8b 45 f8          	mov    -0x8(%rbp),%rax
    7195:	64 48 2b 04 25 28 00 	sub    %fs:0x28,%rax
    719c:	00 00 
    719e:	74 05                	je     71a5 <_ZNSt7__cxx1112basic_stringIcSt11char_traitsIcESaIcEE12_M_constructIPKcEEvT_S8_St20forward_iterator_tag+0x117>
    71a0:	e8 db e9 ff ff       	call   5b80 <__stack_chk_fail@plt>
    71a5:	c9                   	leave
    71a6:	c3                   	ret

00000000000071a7 <_ZSt12__str_concatINSt7__cxx1112basic_stringIcSt11char_traitsIcESaIcEEEET_PKNS6_10value_typeENS6_9size_typeES9_SA_RKNS6_14allocator_typeE>:
    71a7:	f3 0f 1e fa          	endbr64
    71ab:	55                   	push   %rbp
    71ac:	48 89 e5             	mov    %rsp,%rbp
    71af:	53                   	push   %rbx
    71b0:	48 83 ec 78          	sub    $0x78,%rsp
    71b4:	48 89 7d a8          	mov    %rdi,-0x58(%rbp)
    71b8:	48 89 75 a0          	mov    %rsi,-0x60(%rbp)
    71bc:	48 89 55 98          	mov    %rdx,-0x68(%rbp)
    71c0:	48 89 4d 90          	mov    %rcx,-0x70(%rbp)
    71c4:	4c 89 45 88          	mov    %r8,-0x78(%rbp)
    71c8:	4c 89 4d 80          	mov    %r9,-0x80(%rbp)
    71cc:	64 48 8b 04 25 28 00 	mov    %fs:0x28,%rax
    71d3:	00 00 
    71d5:	48 89 45 e8          	mov    %rax,-0x18(%rbp)
    71d9:	31 c0                	xor    %eax,%eax
    71db:	48 8b 45 80          	mov    -0x80(%rbp),%rax
    71df:	48 89 45 b8          	mov    %rax,-0x48(%rbp)
    71e3:	48 8d 45 b7          	lea    -0x49(%rbp),%rax
    71e7:	48 8b 55 b8          	mov    -0x48(%rbp),%rdx
    71eb:	48 89 55 c0          	mov    %rdx,-0x40(%rbp)
    71ef:	48 89 45 c8          	mov    %rax,-0x38(%rbp)
    71f3:	48 8b 45 c0          	mov    -0x40(%rbp),%rax
    71f7:	48 89 45 d0          	mov    %rax,-0x30(%rbp)
    71fb:	48 8b 45 c8          	mov    -0x38(%rbp),%rax
    71ff:	48 89 45 d8          	mov    %rax,-0x28(%rbp)
    7203:	48 8b 45 d0          	mov    -0x30(%rbp),%rax
    7207:	48 89 45 e0          	mov    %rax,-0x20(%rbp)
    720b:	90                   	nop
    720c:	90                   	nop
    720d:	90                   	nop
    720e:	90                   	nop
    720f:	48 8d 55 b7          	lea    -0x49(%rbp),%rdx
    7213:	48 8b 45 a8          	mov    -0x58(%rbp),%rax
    7217:	48 89 d6             	mov    %rdx,%rsi
    721a:	48 89 c7             	mov    %rax,%rdi
    721d:	e8 5e eb ff ff       	call   5d80 <_ZNSt7__cxx1112basic_stringIcSt11char_traitsIcESaIcEEC1ERKS3_@plt>
    7222:	48 8d 45 b7          	lea    -0x49(%rbp),%rax
    7226:	48 89 c7             	mov    %rax,%rdi
    7229:	e8 04 fe ff ff       	call   7032 <_ZNSt15__new_allocatorIcED1Ev>
    722e:	90                   	nop
    722f:	48 8b 55 98          	mov    -0x68(%rbp),%rdx
    7233:	48 8b 45 88          	mov    -0x78(%rbp),%rax
    7237:	48 01 c2             	add    %rax,%rdx
    723a:	48 8b 45 a8          	mov    -0x58(%rbp),%rax
    723e:	48 89 d6             	mov    %rdx,%rsi
    7241:	48 89 c7             	mov    %rax,%rdi
    7244:	e8 87 ea ff ff       	call   5cd0 <_ZNSt7__cxx1112basic_stringIcSt11char_traitsIcESaIcEE7reserveEm@plt>
    7249:	48 8b 55 98          	mov    -0x68(%rbp),%rdx
    724d:	48 8b 4d a0          	mov    -0x60(%rbp),%rcx
    7251:	48 8b 45 a8          	mov    -0x58(%rbp),%rax
    7255:	48 89 ce             	mov    %rcx,%rsi
    7258:	48 89 c7             	mov    %rax,%rdi
    725b:	e8 30 e5 ff ff       	call   5790 <_ZNSt7__cxx1112basic_stringIcSt11char_traitsIcESaIcEE6appendEPKcm@plt>
    7260:	48 8b 55 88          	mov    -0x78(%rbp),%rdx
    7264:	48 8b 4d 90          	mov    -0x70(%rbp),%rcx
    7268:	48 8b 45 a8          	mov    -0x58(%rbp),%rax
    726c:	48 89 ce             	mov    %rcx,%rsi
    726f:	48 89 c7             	mov    %rax,%rdi
    7272:	e8 19 e5 ff ff       	call   5790 <_ZNSt7__cxx1112basic_stringIcSt11char_traitsIcESaIcEE6appendEPKcm@plt>
    7277:	eb 32                	jmp    72ab <_ZSt12__str_concatINSt7__cxx1112basic_stringIcSt11char_traitsIcESaIcEEEET_PKNS6_10value_typeENS6_9size_typeES9_SA_RKNS6_14allocator_typeE+0x104>
    7279:	f3 0f 1e fa          	endbr64
    727d:	48 89 c3             	mov    %rax,%rbx
    7280:	48 8b 45 a8          	mov    -0x58(%rbp),%rax
    7284:	48 89 c7             	mov    %rax,%rdi
    7287:	e8 f4 e6 ff ff       	call   5980 <_ZNSt7__cxx1112basic_stringIcSt11char_traitsIcESaIcEED1Ev@plt>
    728c:	48 89 d8             	mov    %rbx,%rax
    728f:	48 8b 55 e8          	mov    -0x18(%rbp),%rdx
    7293:	64 48 2b 14 25 28 00 	sub    %fs:0x28,%rdx
    729a:	00 00 
    729c:	74 05                	je     72a3 <_ZSt12__str_concatINSt7__cxx1112basic_stringIcSt11char_traitsIcESaIcEEEET_PKNS6_10value_typeENS6_9size_typeES9_SA_RKNS6_14allocator_typeE+0xfc>
    729e:	e8 dd e8 ff ff       	call   5b80 <__stack_chk_fail@plt>
    72a3:	48 89 c7             	mov    %rax,%rdi
    72a6:	e8 15 eb ff ff       	call   5dc0 <_Unwind_Resume@plt>
    72ab:	48 8b 45 e8          	mov    -0x18(%rbp),%rax
    72af:	64 48 2b 04 25 28 00 	sub    %fs:0x28,%rax
    72b6:	00 00 
    72b8:	74 05                	je     72bf <_ZSt12__str_concatINSt7__cxx1112basic_stringIcSt11char_traitsIcESaIcEEEET_PKNS6_10value_typeENS6_9size_typeES9_SA_RKNS6_14allocator_typeE+0x118>
    72ba:	e8 c1 e8 ff ff       	call   5b80 <__stack_chk_fail@plt>
    72bf:	48 8b 45 a8          	mov    -0x58(%rbp),%rax
    72c3:	48 8b 5d f8          	mov    -0x8(%rbp),%rbx
    72c7:	c9                   	leave
    72c8:	c3                   	ret
    72c9:	90                   	nop

00000000000072ca <_ZZNSt7__cxx1112basic_stringIcSt11char_traitsIcESaIcEE12_M_constructISt19istreambuf_iteratorIcS2_EEEvT_S8_St18input_iterator_tagEN6_GuardC1EPS4_>:
    72ca:	f3 0f 1e fa          	endbr64
    72ce:	55                   	push   %rbp
    72cf:	48 89 e5             	mov    %rsp,%rbp
    72d2:	48 89 7d f8          	mov    %rdi,-0x8(%rbp)
    72d6:	48 89 75 f0          	mov    %rsi,-0x10(%rbp)
    72da:	48 8b 45 f8          	mov    -0x8(%rbp),%rax
    72de:	48 8b 55 f0          	mov    -0x10(%rbp),%rdx
    72e2:	48 89 10             	mov    %rdx,(%rax)
    72e5:	90                   	nop
    72e6:	5d                   	pop    %rbp
    72e7:	c3                   	ret

00000000000072e8 <_ZZNSt7__cxx1112basic_stringIcSt11char_traitsIcESaIcEE12_M_constructISt19istreambuf_iteratorIcS2_EEEvT_S8_St18input_iterator_tagEN6_GuardD1Ev>:
    72e8:	f3 0f 1e fa          	endbr64
    72ec:	55                   	push   %rbp
    72ed:	48 89 e5             	mov    %rsp,%rbp
    72f0:	48 83 ec 10          	sub    $0x10,%rsp
    72f4:	48 89 7d f8          	mov    %rdi,-0x8(%rbp)
    72f8:	48 8b 45 f8          	mov    -0x8(%rbp),%rax
    72fc:	48 8b 00             	mov    (%rax),%rax
    72ff:	48 85 c0             	test   %rax,%rax
    7302:	74 0f                	je     7313 <_ZZNSt7__cxx1112basic_stringIcSt11char_traitsIcESaIcEE12_M_constructISt19istreambuf_iteratorIcS2_EEEvT_S8_St18input_iterator_tagEN6_GuardD1Ev+0x2b>
    7304:	48 8b 45 f8          	mov    -0x8(%rbp),%rax
    7308:	48 8b 00             	mov    (%rax),%rax
    730b:	48 89 c7             	mov    %rax,%rdi
    730e:	e8 cd e8 ff ff       	call   5be0 <_ZNSt7__cxx1112basic_stringIcSt11char_traitsIcESaIcEE10_M_disposeEv@plt>
    7313:	90                   	nop
    7314:	c9                   	leave
    7315:	c3                   	ret

0000000000007316 <_ZNSt7__cxx1112basic_stringIcSt11char_traitsIcESaIcEE12_M_constructISt19istreambuf_iteratorIcS2_EEEvT_S8_St18input_iterator_tag>:
    7316:	f3 0f 1e fa          	endbr64
    731a:	55                   	push   %rbp
    731b:	48 89 e5             	mov    %rsp,%rbp
    731e:	53                   	push   %rbx
    731f:	48 83 ec 78          	sub    $0x78,%rsp
    7323:	48 89 7d a8          	mov    %rdi,-0x58(%rbp)
    7327:	48 89 f0             	mov    %rsi,%rax
    732a:	48 89 d6             	mov    %rdx,%rsi
    732d:	48 89 f2             	mov    %rsi,%rdx
    7330:	48 89 45 90          	mov    %rax,-0x70(%rbp)
    7334:	48 89 55 98          	mov    %rdx,-0x68(%rbp)
    7338:	48 89 c8             	mov    %rcx,%rax
    733b:	4c 89 c1             	mov    %r8,%rcx
    733e:	48 89 ca             	mov    %rcx,%rdx
    7341:	48 89 45 80          	mov    %rax,-0x80(%rbp)
    7345:	48 89 55 88          	mov    %rdx,-0x78(%rbp)
    7349:	64 48 8b 04 25 28 00 	mov    %fs:0x28,%rax
    7350:	00 00 
    7352:	48 89 45 e8          	mov    %rax,-0x18(%rbp)
    7356:	31 c0                	xor    %eax,%eax
    7358:	48 c7 45 d0 00 00 00 	movq   $0x0,-0x30(%rbp)
    735f:	00 
    7360:	48 c7 45 c0 0f 00 00 	movq   $0xf,-0x40(%rbp)
    7367:	00 
    7368:	48 8b 45 a8          	mov    -0x58(%rbp),%rax
    736c:	48 89 45 e0          	mov    %rax,-0x20(%rbp)
    7370:	90                   	nop
    7371:	eb 2e                	jmp    73a1 <_ZNSt7__cxx1112basic_stringIcSt11char_traitsIcESaIcEE12_M_constructISt19istreambuf_iteratorIcS2_EEEvT_S8_St18input_iterator_tag+0x8b>
    7373:	48 8d 45 90          	lea    -0x70(%rbp),%rax
    7377:	48 89 c7             	mov    %rax,%rdi
    737a:	e8 f5 01 00 00       	call   7574 <_ZNKSt19istreambuf_iteratorIcSt11char_traitsIcEEdeEv>
    737f:	89 c2                	mov    %eax,%edx
    7381:	48 8b 45 d0          	mov    -0x30(%rbp),%rax
    7385:	48 8d 48 01          	lea    0x1(%rax),%rcx
    7389:	48 89 4d d0          	mov    %rcx,-0x30(%rbp)
    738d:	48 8b 4d a8          	mov    -0x58(%rbp),%rcx
    7391:	88 54 01 10          	mov    %dl,0x10(%rcx,%rax,1)
    7395:	48 8d 45 90          	lea    -0x70(%rbp),%rax
    7399:	48 89 c7             	mov    %rax,%rdi
    739c:	e8 23 02 00 00       	call   75c4 <_ZNSt19istreambuf_iteratorIcSt11char_traitsIcEEppEv>
    73a1:	48 8d 55 80          	lea    -0x80(%rbp),%rdx
    73a5:	48 8d 45 90          	lea    -0x70(%rbp),%rax
    73a9:	48 89 d6             	mov    %rdx,%rsi
    73ac:	48 89 c7             	mov    %rax,%rdi
    73af:	e8 93 01 00 00       	call   7547 <_ZStneIcSt11char_traitsIcEEbRKSt19istreambuf_iteratorIT_T0_ES7_>
    73b4:	84 c0                	test   %al,%al
    73b6:	74 11                	je     73c9 <_ZNSt7__cxx1112basic_stringIcSt11char_traitsIcESaIcEE12_M_constructISt19istreambuf_iteratorIcS2_EEEvT_S8_St18input_iterator_tag+0xb3>
    73b8:	48 8b 45 c0          	mov    -0x40(%rbp),%rax
    73bc:	48 39 45 d0          	cmp    %rax,-0x30(%rbp)
    73c0:	73 07                	jae    73c9 <_ZNSt7__cxx1112basic_stringIcSt11char_traitsIcESaIcEE12_M_constructISt19istreambuf_iteratorIcS2_EEEvT_S8_St18input_iterator_tag+0xb3>
    73c2:	b8 01 00 00 00       	mov    $0x1,%eax
    73c7:	eb 05                	jmp    73ce <_ZNSt7__cxx1112basic_stringIcSt11char_traitsIcESaIcEE12_M_constructISt19istreambuf_iteratorIcS2_EEEvT_S8_St18input_iterator_tag+0xb8>
    73c9:	b8 00 00 00 00       	mov    $0x0,%eax
    73ce:	84 c0                	test   %al,%al
    73d0:	75 a1                	jne    7373 <_ZNSt7__cxx1112basic_stringIcSt11char_traitsIcESaIcEE12_M_constructISt19istreambuf_iteratorIcS2_EEEvT_S8_St18input_iterator_tag+0x5d>
    73d2:	48 8b 55 a8          	mov    -0x58(%rbp),%rdx
    73d6:	48 8d 45 c8          	lea    -0x38(%rbp),%rax
    73da:	48 89 d6             	mov    %rdx,%rsi
    73dd:	48 89 c7             	mov    %rax,%rdi
    73e0:	e8 e5 fe ff ff       	call   72ca <_ZZNSt7__cxx1112basic_stringIcSt11char_traitsIcESaIcEE12_M_constructISt19istreambuf_iteratorIcS2_EEEvT_S8_St18input_iterator_tagEN6_GuardC1EPS4_>
    73e5:	e9 cd 00 00 00       	jmp    74b7 <_ZNSt7__cxx1112basic_stringIcSt11char_traitsIcESaIcEE12_M_constructISt19istreambuf_iteratorIcS2_EEEvT_S8_St18input_iterator_tag+0x1a1>
    73ea:	48 8b 45 c0          	mov    -0x40(%rbp),%rax
    73ee:	48 39 45 d0          	cmp    %rax,-0x30(%rbp)
    73f2:	75 7b                	jne    746f <_ZNSt7__cxx1112basic_stringIcSt11char_traitsIcESaIcEE12_M_constructISt19istreambuf_iteratorIcS2_EEEvT_S8_St18input_iterator_tag+0x159>
    73f4:	48 8b 45 d0          	mov    -0x30(%rbp),%rax
    73f8:	48 83 c0 01          	add    $0x1,%rax
    73fc:	48 89 45 c0          	mov    %rax,-0x40(%rbp)
    7400:	48 8b 55 d0          	mov    -0x30(%rbp),%rdx
    7404:	48 8d 4d c0          	lea    -0x40(%rbp),%rcx
    7408:	48 8b 45 a8          	mov    -0x58(%rbp),%rax
    740c:	48 89 ce             	mov    %rcx,%rsi
    740f:	48 89 c7             	mov    %rax,%rdi
    7412:	e8 b9 e9 ff ff       	call   5dd0 <_ZNSt7__cxx1112basic_stringIcSt11char_traitsIcESaIcEE9_M_createERmm@plt>
    7417:	48 89 45 d8          	mov    %rax,-0x28(%rbp)
    741b:	48 8b 45 a8          	mov    -0x58(%rbp),%rax
    741f:	48 89 c7             	mov    %rax,%rdi
    7422:	e8 19 e7 ff ff       	call   5b40 <_ZNKSt7__cxx1112basic_stringIcSt11char_traitsIcESaIcEE7_M_dataEv@plt>
    7427:	48 89 c1             	mov    %rax,%rcx
    742a:	48 8b 55 d0          	mov    -0x30(%rbp),%rdx
    742e:	48 8b 45 d8          	mov    -0x28(%rbp),%rax
    7432:	48 89 ce             	mov    %rcx,%rsi
    7435:	48 89 c7             	mov    %rax,%rdi
    7438:	e8 63 e9 ff ff       	call   5da0 <_ZNSt7__cxx1112basic_stringIcSt11char_traitsIcESaIcEE7_S_copyEPcPKcm@plt>
    743d:	48 8b 45 a8          	mov    -0x58(%rbp),%rax
    7441:	48 89 c7             	mov    %rax,%rdi
    7444:	e8 97 e7 ff ff       	call   5be0 <_ZNSt7__cxx1112basic_stringIcSt11char_traitsIcESaIcEE10_M_disposeEv@plt>
    7449:	48 8b 55 d8          	mov    -0x28(%rbp),%rdx
    744d:	48 8b 45 a8          	mov    -0x58(%rbp),%rax
    7451:	48 89 d6             	mov    %rdx,%rsi
    7454:	48 89 c7             	mov    %rax,%rdi
    7457:	e8 04 e6 ff ff       	call   5a60 <_ZNSt7__cxx1112basic_stringIcSt11char_traitsIcESaIcEE7_M_dataEPc@plt>
    745c:	48 8b 55 c0          	mov    -0x40(%rbp),%rdx
    7460:	48 8b 45 a8          	mov    -0x58(%rbp),%rax
    7464:	48 89 d6             	mov    %rdx,%rsi
    7467:	48 89 c7             	mov    %rax,%rdi
    746a:	e8 b1 e9 ff ff       	call   5e20 <_ZNSt7__cxx1112basic_stringIcSt11char_traitsIcESaIcEE11_M_capacityEm@plt>
    746f:	48 8d 45 90          	lea    -0x70(%rbp),%rax
    7473:	48 89 c7             	mov    %rax,%rdi
    7476:	e8 f9 00 00 00       	call   7574 <_ZNKSt19istreambuf_iteratorIcSt11char_traitsIcEEdeEv>
    747b:	88 45 bf             	mov    %al,-0x41(%rbp)
    747e:	48 8b 45 a8          	mov    -0x58(%rbp),%rax
    7482:	48 89 c7             	mov    %rax,%rdi
    7485:	e8 b6 e6 ff ff       	call   5b40 <_ZNKSt7__cxx1112basic_stringIcSt11char_traitsIcESaIcEE7_M_dataEv@plt>
    748a:	48 89 c2             	mov    %rax,%rdx
    748d:	48 8b 45 d0          	mov    -0x30(%rbp),%rax
    7491:	48 8d 48 01          	lea    0x1(%rax),%rcx
    7495:	48 89 4d d0          	mov    %rcx,-0x30(%rbp)
    7499:	48 01 c2             	add    %rax,%rdx
    749c:	48 8d 45 bf          	lea    -0x41(%rbp),%rax
    74a0:	48 89 c6             	mov    %rax,%rsi
    74a3:	48 89 d7             	mov    %rdx,%rdi
    74a6:	e8 bd f4 ff ff       	call   6968 <_ZNSt11char_traitsIcE6assignERcRKc>
    74ab:	48 8d 45 90          	lea    -0x70(%rbp),%rax
    74af:	48 89 c7             	mov    %rax,%rdi
    74b2:	e8 0d 01 00 00       	call   75c4 <_ZNSt19istreambuf_iteratorIcSt11char_traitsIcEEppEv>
    74b7:	48 8d 55 80          	lea    -0x80(%rbp),%rdx
    74bb:	48 8d 45 90          	lea    -0x70(%rbp),%rax
    74bf:	48 89 d6             	mov    %rdx,%rsi
    74c2:	48 89 c7             	mov    %rax,%rdi
    74c5:	e8 7d 00 00 00       	call   7547 <_ZStneIcSt11char_traitsIcEEbRKSt19istreambuf_iteratorIT_T0_ES7_>
    74ca:	84 c0                	test   %al,%al
    74cc:	0f 85 18 ff ff ff    	jne    73ea <_ZNSt7__cxx1112basic_stringIcSt11char_traitsIcESaIcEE12_M_constructISt19istreambuf_iteratorIcS2_EEEvT_S8_St18input_iterator_tag+0xd4>
    74d2:	48 c7 45 c8 00 00 00 	movq   $0x0,-0x38(%rbp)
    74d9:	00 
    74da:	48 8b 55 d0          	mov    -0x30(%rbp),%rdx
    74de:	48 8b 45 a8          	mov    -0x58(%rbp),%rax
    74e2:	48 89 d6             	mov    %rdx,%rsi
    74e5:	48 89 c7             	mov    %rax,%rdi
    74e8:	e8 e3 e4 ff ff       	call   59d0 <_ZNSt7__cxx1112basic_stringIcSt11char_traitsIcESaIcEE13_M_set_lengthEm@plt>
    74ed:	48 8d 45 c8          	lea    -0x38(%rbp),%rax
    74f1:	48 89 c7             	mov    %rax,%rdi
    74f4:	e8 ef fd ff ff       	call   72e8 <_ZZNSt7__cxx1112basic_stringIcSt11char_traitsIcESaIcEE12_M_constructISt19istreambuf_iteratorIcS2_EEEvT_S8_St18input_iterator_tagEN6_GuardD1Ev>
    74f9:	48 8b 45 e8          	mov    -0x18(%rbp),%rax
    74fd:	64 48 2b 04 25 28 00 	sub    %fs:0x28,%rax
    7504:	00 00 
    7506:	74 39                	je     7541 <_ZNSt7__cxx1112basic_stringIcSt11char_traitsIcESaIcEE12_M_constructISt19istreambuf_iteratorIcS2_EEEvT_S8_St18input_iterator_tag+0x22b>
    7508:	eb 32                	jmp    753c <_ZNSt7__cxx1112basic_stringIcSt11char_traitsIcESaIcEE12_M_constructISt19istreambuf_iteratorIcS2_EEEvT_S8_St18input_iterator_tag+0x226>
    750a:	f3 0f 1e fa          	endbr64
    750e:	48 89 c3             	mov    %rax,%rbx
    7511:	48 8d 45 c8          	lea    -0x38(%rbp),%rax
    7515:	48 89 c7             	mov    %rax,%rdi
    7518:	e8 cb fd ff ff       	call   72e8 <_ZZNSt7__cxx1112basic_stringIcSt11char_traitsIcESaIcEE12_M_constructISt19istreambuf_iteratorIcS2_EEEvT_S8_St18input_iterator_tagEN6_GuardD1Ev>
    751d:	48 89 d8             	mov    %rbx,%rax
    7520:	48 8b 55 e8          	mov    -0x18(%rbp),%rdx
    7524:	64 48 2b 14 25 28 00 	sub    %fs:0x28,%rdx
    752b:	00 00 
    752d:	74 05                	je     7534 <_ZNSt7__cxx1112basic_stringIcSt11char_traitsIcESaIcEE12_M_constructISt19istreambuf_iteratorIcS2_EEEvT_S8_St18input_iterator_tag+0x21e>
    752f:	e8 4c e6 ff ff       	call   5b80 <__stack_chk_fail@plt>
    7534:	48 89 c7             	mov    %rax,%rdi
    7537:	e8 84 e8 ff ff       	call   5dc0 <_Unwind_Resume@plt>
    753c:	e8 3f e6 ff ff       	call   5b80 <__stack_chk_fail@plt>
    7541:	48 8b 5d f8          	mov    -0x8(%rbp),%rbx
    7545:	c9                   	leave
    7546:	c3                   	ret

0000000000007547 <_ZStneIcSt11char_traitsIcEEbRKSt19istreambuf_iteratorIT_T0_ES7_>:
    7547:	f3 0f 1e fa          	endbr64
    754b:	55                   	push   %rbp
    754c:	48 89 e5             	mov    %rsp,%rbp
    754f:	48 83 ec 10          	sub    $0x10,%rsp
    7553:	48 89 7d f8          	mov    %rdi,-0x8(%rbp)
    7557:	48 89 75 f0          	mov    %rsi,-0x10(%rbp)
    755b:	48 8b 55 f0          	mov    -0x10(%rbp),%rdx
    755f:	48 8b 45 f8          	mov    -0x8(%rbp),%rax
    7563:	48 89 d6             	mov    %rdx,%rsi
    7566:	48 89 c7             	mov    %rax,%rdi
    7569:	e8 88 00 00 00       	call   75f6 <_ZNKSt19istreambuf_iteratorIcSt11char_traitsIcEE5equalERKS2_>
    756e:	83 f0 01             	xor    $0x1,%eax
    7571:	c9                   	leave
    7572:	c3                   	ret
    7573:	90                   	nop

0000000000007574 <_ZNKSt19istreambuf_iteratorIcSt11char_traitsIcEEdeEv>:
    7574:	f3 0f 1e fa          	endbr64
    7578:	55                   	push   %rbp
    7579:	48 89 e5             	mov    %rsp,%rbp
    757c:	48 83 ec 20          	sub    $0x20,%rsp
    7580:	48 89 7d e8          	mov    %rdi,-0x18(%rbp)
    7584:	64 48 8b 04 25 28 00 	mov    %fs:0x28,%rax
    758b:	00 00 
    758d:	48 89 45 f8          	mov    %rax,-0x8(%rbp)
    7591:	31 c0                	xor    %eax,%eax
    7593:	48 8b 45 e8          	mov    -0x18(%rbp),%rax
    7597:	48 89 c7             	mov    %rax,%rdi
    759a:	e8 91 00 00 00       	call   7630 <_ZNKSt19istreambuf_iteratorIcSt11char_traitsIcEE6_M_getEv>
    759f:	89 45 f4             	mov    %eax,-0xc(%rbp)
    75a2:	48 8d 45 f4          	lea    -0xc(%rbp),%rax
    75a6:	48 89 c7             	mov    %rax,%rdi
    75a9:	e8 fb f4 ff ff       	call   6aa9 <_ZNSt11char_traitsIcE12to_char_typeERKi>
    75ae:	48 8b 55 f8          	mov    -0x8(%rbp),%rdx
    75b2:	64 48 2b 14 25 28 00 	sub    %fs:0x28,%rdx
    75b9:	00 00 
    75bb:	74 05                	je     75c2 <_ZNKSt19istreambuf_iteratorIcSt11char_traitsIcEEdeEv+0x4e>
    75bd:	e8 be e5 ff ff       	call   5b80 <__stack_chk_fail@plt>
    75c2:	c9                   	leave
    75c3:	c3                   	ret

00000000000075c4 <_ZNSt19istreambuf_iteratorIcSt11char_traitsIcEEppEv>:
    75c4:	f3 0f 1e fa          	endbr64
    75c8:	55                   	push   %rbp
    75c9:	48 89 e5             	mov    %rsp,%rbp
    75cc:	48 83 ec 10          	sub    $0x10,%rsp
    75d0:	48 89 7d f8          	mov    %rdi,-0x8(%rbp)
    75d4:	48 8b 45 f8          	mov    -0x8(%rbp),%rax
    75d8:	48 8b 00             	mov    (%rax),%rax
    75db:	48 89 c7             	mov    %rax,%rdi
    75de:	e8 4d e3 ff ff       	call   5930 <_ZNSt15basic_streambufIcSt11char_traitsIcEE6sbumpcEv@plt>
    75e3:	e8 f8 f4 ff ff       	call   6ae0 <_ZNSt11char_traitsIcE3eofEv>
    75e8:	48 8b 55 f8          	mov    -0x8(%rbp),%rdx
    75ec:	89 42 08             	mov    %eax,0x8(%rdx)
    75ef:	48 8b 45 f8          	mov    -0x8(%rbp),%rax
    75f3:	c9                   	leave
    75f4:	c3                   	ret
    75f5:	90                   	nop

00000000000075f6 <_ZNKSt19istreambuf_iteratorIcSt11char_traitsIcEE5equalERKS2_>:
    75f6:	f3 0f 1e fa          	endbr64
    75fa:	55                   	push   %rbp
    75fb:	48 89 e5             	mov    %rsp,%rbp
    75fe:	53                   	push   %rbx
    75ff:	48 83 ec 18          	sub    $0x18,%rsp
    7603:	48 89 7d e8          	mov    %rdi,-0x18(%rbp)
    7607:	48 89 75 e0          	mov    %rsi,-0x20(%rbp)
    760b:	48 8b 45 e8          	mov    -0x18(%rbp),%rax
    760f:	48 89 c7             	mov    %rax,%rdi
    7612:	e8 8d 00 00 00       	call   76a4 <_ZNKSt19istreambuf_iteratorIcSt11char_traitsIcEE9_M_at_eofEv>
    7617:	89 c3                	mov    %eax,%ebx
    7619:	48 8b 45 e0          	mov    -0x20(%rbp),%rax
    761d:	48 89 c7             	mov    %rax,%rdi
    7620:	e8 7f 00 00 00       	call   76a4 <_ZNKSt19istreambuf_iteratorIcSt11char_traitsIcEE9_M_at_eofEv>
    7625:	38 c3                	cmp    %al,%bl
    7627:	0f 94 c0             	sete   %al
    762a:	48 8b 5d f8          	mov    -0x8(%rbp),%rbx
    762e:	c9                   	leave
    762f:	c3                   	ret

0000000000007630 <_ZNKSt19istreambuf_iteratorIcSt11char_traitsIcEE6_M_getEv>:
    7630:	f3 0f 1e fa          	endbr64
    7634:	55                   	push   %rbp
    7635:	48 89 e5             	mov    %rsp,%rbp
    7638:	48 83 ec 20          	sub    $0x20,%rsp
    763c:	48 89 7d e8          	mov    %rdi,-0x18(%rbp)
    7640:	48 8b 45 e8          	mov    -0x18(%rbp),%rax
    7644:	8b 40 08             	mov    0x8(%rax),%eax
    7647:	89 45 fc             	mov    %eax,-0x4(%rbp)
    764a:	48 8b 45 e8          	mov    -0x18(%rbp),%rax
    764e:	48 8b 00             	mov    (%rax),%rax
    7651:	48 85 c0             	test   %rax,%rax
    7654:	74 35                	je     768b <_ZNKSt19istreambuf_iteratorIcSt11char_traitsIcEE6_M_getEv+0x5b>
    7656:	8b 45 fc             	mov    -0x4(%rbp),%eax
    7659:	89 c7                	mov    %eax,%edi
    765b:	e8 69 00 00 00       	call   76c9 <_ZNSt19istreambuf_iteratorIcSt11char_traitsIcEE9_S_is_eofEi>
    7660:	84 c0                	test   %al,%al
    7662:	74 27                	je     768b <_ZNKSt19istreambuf_iteratorIcSt11char_traitsIcEE6_M_getEv+0x5b>
    7664:	48 8b 45 e8          	mov    -0x18(%rbp),%rax
    7668:	48 8b 00             	mov    (%rax),%rax
    766b:	48 89 c7             	mov    %rax,%rdi
    766e:	e8 4d e6 ff ff       	call   5cc0 <_ZNSt15basic_streambufIcSt11char_traitsIcEE5sgetcEv@plt>
    7673:	89 45 fc             	mov    %eax,-0x4(%rbp)
    7676:	8b 45 fc             	mov    -0x4(%rbp),%eax
    7679:	89 c7                	mov    %eax,%edi
    767b:	e8 49 00 00 00       	call   76c9 <_ZNSt19istreambuf_iteratorIcSt11char_traitsIcEE9_S_is_eofEi>
    7680:	84 c0                	test   %al,%al
    7682:	74 07                	je     768b <_ZNKSt19istreambuf_iteratorIcSt11char_traitsIcEE6_M_getEv+0x5b>
    7684:	b8 01 00 00 00       	mov    $0x1,%eax
    7689:	eb 05                	jmp    7690 <_ZNKSt19istreambuf_iteratorIcSt11char_traitsIcEE6_M_getEv+0x60>
    768b:	b8 00 00 00 00       	mov    $0x0,%eax
    7690:	84 c0                	test   %al,%al
    7692:	74 0b                	je     769f <_ZNKSt19istreambuf_iteratorIcSt11char_traitsIcEE6_M_getEv+0x6f>
    7694:	48 8b 45 e8          	mov    -0x18(%rbp),%rax
    7698:	48 c7 00 00 00 00 00 	movq   $0x0,(%rax)
    769f:	8b 45 fc             	mov    -0x4(%rbp),%eax
    76a2:	c9                   	leave
    76a3:	c3                   	ret

00000000000076a4 <_ZNKSt19istreambuf_iteratorIcSt11char_traitsIcEE9_M_at_eofEv>:
    76a4:	f3 0f 1e fa          	endbr64
    76a8:	55                   	push   %rbp
    76a9:	48 89 e5             	mov    %rsp,%rbp
    76ac:	48 83 ec 10          	sub    $0x10,%rsp
    76b0:	48 89 7d f8          	mov    %rdi,-0x8(%rbp)
    76b4:	48 8b 45 f8          	mov    -0x8(%rbp),%rax
    76b8:	48 89 c7             	mov    %rax,%rdi
    76bb:	e8 70 ff ff ff       	call   7630 <_ZNKSt19istreambuf_iteratorIcSt11char_traitsIcEE6_M_getEv>
    76c0:	89 c7                	mov    %eax,%edi
    76c2:	e8 02 00 00 00       	call   76c9 <_ZNSt19istreambuf_iteratorIcSt11char_traitsIcEE9_S_is_eofEi>
    76c7:	c9                   	leave
    76c8:	c3                   	ret

00000000000076c9 <_ZNSt19istreambuf_iteratorIcSt11char_traitsIcEE9_S_is_eofEi>:
    76c9:	f3 0f 1e fa          	endbr64
    76cd:	55                   	push   %rbp
    76ce:	48 89 e5             	mov    %rsp,%rbp
    76d1:	48 83 ec 20          	sub    $0x20,%rsp
    76d5:	89 7d ec             	mov    %edi,-0x14(%rbp)
    76d8:	64 48 8b 04 25 28 00 	mov    %fs:0x28,%rax
    76df:	00 00 
    76e1:	48 89 45 f8          	mov    %rax,-0x8(%rbp)
    76e5:	31 c0                	xor    %eax,%eax
    76e7:	c7 45 f4 ff ff ff ff 	movl   $0xffffffff,-0xc(%rbp)
    76ee:	48 8d 55 f4          	lea    -0xc(%rbp),%rdx
    76f2:	48 8d 45 ec          	lea    -0x14(%rbp),%rax
    76f6:	48 89 d6             	mov    %rdx,%rsi
    76f9:	48 89 c7             	mov    %rax,%rdi
    76fc:	e8 bc f3 ff ff       	call   6abd <_ZNSt11char_traitsIcE11eq_int_typeERKiS2_>
    7701:	48 8b 55 f8          	mov    -0x8(%rbp),%rdx
    7705:	64 48 2b 14 25 28 00 	sub    %fs:0x28,%rdx
    770c:	00 00 
    770e:	74 05                	je     7715 <_ZNSt19istreambuf_iteratorIcSt11char_traitsIcEE9_S_is_eofEi+0x4c>
    7710:	e8 6b e4 ff ff       	call   5b80 <__stack_chk_fail@plt>
    7715:	c9                   	leave
    7716:	c3                   	ret
    7717:	90                   	nop

0000000000007718 <_ZN10Visualizer18generateMermaidCFGERKNSt7__cxx1112basic_stringIcSt11char_traitsIcESaIcEEE>:
    7718:	f3 0f 1e fa          	endbr64
    771c:	55                   	push   %rbp
    771d:	48 89 e5             	mov    %rsp,%rbp
    7720:	53                   	push   %rbx
    7721:	48 81 ec 98 04 00 00 	sub    $0x498,%rsp
    7728:	48 89 bd 68 fb ff ff 	mov    %rdi,-0x498(%rbp)
    772f:	48 89 b5 60 fb ff ff 	mov    %rsi,-0x4a0(%rbp)
    7736:	64 48 8b 04 25 28 00 	mov    %fs:0x28,%rax
    773d:	00 00 
    773f:	48 89 45 e8          	mov    %rax,-0x18(%rbp)
    7743:	31 c0                	xor    %eax,%eax
    7745:	be 08 00 00 00       	mov    $0x8,%esi
    774a:	bf 10 00 00 00       	mov    $0x10,%edi
    774f:	e8 9b f3 ff ff       	call   6aef <_ZStorSt13_Ios_OpenmodeS_>
    7754:	89 c2                	mov    %eax,%edx
    7756:	48 8b 8d 60 fb ff ff 	mov    -0x4a0(%rbp),%rcx
    775d:	48 8d 85 d0 fc ff ff 	lea    -0x330(%rbp),%rax
    7764:	48 89 ce             	mov    %rcx,%rsi
    7767:	48 89 c7             	mov    %rax,%rdi
    776a:	e8 81 e5 ff ff       	call   5cf0 <_ZNSt7__cxx1118basic_stringstreamIcSt11char_traitsIcESaIcEEC1ERKNS_12basic_stringIcS2_S3_EESt13_Ios_Openmode@plt>
    776f:	48 8d 85 70 fc ff ff 	lea    -0x390(%rbp),%rax
    7776:	48 89 c7             	mov    %rax,%rdi
    7779:	e8 e2 e4 ff ff       	call   5c60 <_ZNSt7__cxx1112basic_stringIcSt11char_traitsIcESaIcEEC1Ev@plt>
    777e:	48 8d 85 40 fc ff ff 	lea    -0x3c0(%rbp),%rax
    7785:	48 89 85 a8 fb ff ff 	mov    %rax,-0x458(%rbp)
    778c:	90                   	nop
    778d:	90                   	nop
    778e:	48 8d 95 40 fc ff ff 	lea    -0x3c0(%rbp),%rdx
    7795:	48 8d 85 90 fc ff ff 	lea    -0x370(%rbp),%rax
    779c:	48 8d 0d 3e fb 02 00 	lea    0x2fb3e(%rip),%rcx        # 372e1 <_ZZNSt19_Sp_make_shared_tag5_S_tiEvE5__tag+0x49>
    77a3:	48 89 ce             	mov    %rcx,%rsi
    77a6:	48 89 c7             	mov    %rax,%rdi
    77a9:	e8 ee f3 ff ff       	call   6b9c <_ZNSt7__cxx1112basic_stringIcSt11char_traitsIcESaIcEEC1IS3_EEPKcRKS3_>
    77ae:	48 8d 85 40 fc ff ff 	lea    -0x3c0(%rbp),%rax
    77b5:	48 89 c7             	mov    %rax,%rdi
    77b8:	e8 75 f8 ff ff       	call   7032 <_ZNSt15__new_allocatorIcED1Ev>
    77bd:	90                   	nop
    77be:	48 8d 85 10 fc ff ff 	lea    -0x3f0(%rbp),%rax
    77c5:	48 89 c7             	mov    %rax,%rdi
    77c8:	e8 79 17 00 00       	call   8f46 <_ZNSt3setIN10Visualizer4EdgeESt4lessIS1_ESaIS1_EEC1Ev>
    77cd:	48 8d 85 40 fc ff ff 	lea    -0x3c0(%rbp),%rax
    77d4:	48 89 c7             	mov    %rax,%rdi
    77d7:	e8 f2 17 00 00       	call   8fce <_ZNSt3setINSt7__cxx1112basic_stringIcSt11char_traitsIcESaIcEEESt4lessIS5_ESaIS5_EEC1Ev>
    77dc:	48 8d 85 b0 fb ff ff 	lea    -0x450(%rbp),%rax
    77e3:	ba 10 00 00 00       	mov    $0x10,%edx
    77e8:	48 8d 0d fa fa 02 00 	lea    0x2fafa(%rip),%rcx        # 372e9 <_ZZNSt19_Sp_make_shared_tag5_S_tiEvE5__tag+0x51>
    77ef:	48 89 ce             	mov    %rcx,%rsi
    77f2:	48 89 c7             	mov    %rax,%rdi
    77f5:	e8 00 1c 00 00       	call   93fa <_ZNSt7__cxx1111basic_regexIcNS_12regex_traitsIcEEEC1EPKcNSt15regex_constants18syntax_option_typeE>
    77fa:	48 8d 85 d0 fb ff ff 	lea    -0x430(%rbp),%rax
    7801:	ba 10 00 00 00       	mov    $0x10,%edx
    7806:	48 8d 0d fb fa 02 00 	lea    0x2fafb(%rip),%rcx        # 37308 <_ZZNSt19_Sp_make_shared_tag5_S_tiEvE5__tag+0x70>
    780d:	48 89 ce             	mov    %rcx,%rsi
    7810:	48 89 c7             	mov    %rax,%rdi
    7813:	e8 e2 1b 00 00       	call   93fa <_ZNSt7__cxx1111basic_regexIcNS_12regex_traitsIcEEEC1EPKcNSt15regex_constants18syntax_option_typeE>
    7818:	e9 57 03 00 00       	jmp    7b74 <_ZN10Visualizer18generateMermaidCFGERKNSt7__cxx1112basic_stringIcSt11char_traitsIcESaIcEEE+0x45c>
    781d:	48 8d 85 f0 fb ff ff 	lea    -0x410(%rbp),%rax
    7824:	48 89 c7             	mov    %rax,%rdi
    7827:	e8 a0 1c 00 00       	call   94cc <_ZNSt7__cxx1113match_resultsIN9__gnu_cxx17__normal_iteratorIPKcNS_12basic_stringIcSt11char_traitsIcESaIcEEEEESaINS_9sub_matchISA_EEEEC1Ev>
    782c:	48 8d 95 b0 fb ff ff 	lea    -0x450(%rbp),%rdx
    7833:	48 8d b5 f0 fb ff ff 	lea    -0x410(%rbp),%rsi
    783a:	48 8d 85 70 fc ff ff 	lea    -0x390(%rbp),%rax
    7841:	b9 00 00 00 00       	mov    $0x0,%ecx
    7846:	48 89 c7             	mov    %rax,%rdi
    7849:	e8 38 1d 00 00       	call   9586 <_ZSt12regex_searchISt11char_traitsIcESaIcESaINSt7__cxx119sub_matchIN9__gnu_cxx17__normal_iteratorIPKcNS3_12basic_stringIcS1_S2_EEEEEEEcNS3_12regex_traitsIcEEEbRKNS9_IT2_T_T0_EERNS3_13match_resultsINSJ_14const_iteratorET1_EERKNS3_11basic_regexISG_T3_EENSt15regex_constants15match_flag_typeE>
    784e:	84 c0                	test   %al,%al
    7850:	74 6f                	je     78c1 <_ZN10Visualizer18generateMermaidCFGERKNSt7__cxx1112basic_stringIcSt11char_traitsIcESaIcEEE+0x1a9>
    7852:	48 8d 85 f0 fb ff ff 	lea    -0x410(%rbp),%rax
    7859:	be 01 00 00 00       	mov    $0x1,%esi
    785e:	48 89 c7             	mov    %rax,%rdi
    7861:	e8 7c 1d 00 00       	call   95e2 <_ZNKSt7__cxx1113match_resultsIN9__gnu_cxx17__normal_iteratorIPKcNS_12basic_stringIcSt11char_traitsIcESaIcEEEEESaINS_9sub_matchISA_EEEEixEm>
    7866:	48 89 c2             	mov    %rax,%rdx
    7869:	48 8d 85 60 fe ff ff 	lea    -0x1a0(%rbp),%rax
    7870:	48 89 d6             	mov    %rdx,%rsi
    7873:	48 89 c7             	mov    %rax,%rdi
    7876:	e8 db 1d 00 00       	call   9656 <_ZNKSt7__cxx119sub_matchIN9__gnu_cxx17__normal_iteratorIPKcNS_12basic_stringIcSt11char_traitsIcESaIcEEEEEE3strEv>
    787b:	48 8d 95 60 fe ff ff 	lea    -0x1a0(%rbp),%rdx
    7882:	48 8d 85 90 fc ff ff 	lea    -0x370(%rbp),%rax
    7889:	48 89 d6             	mov    %rdx,%rsi
    788c:	48 89 c7             	mov    %rax,%rdi
    788f:	e8 3c e3 ff ff       	call   5bd0 <_ZNSt7__cxx1112basic_stringIcSt11char_traitsIcESaIcEEaSEOS4_@plt>
    7894:	48 8d 85 60 fe ff ff 	lea    -0x1a0(%rbp),%rax
    789b:	48 89 c7             	mov    %rax,%rdi
    789e:	e8 dd e0 ff ff       	call   5980 <_ZNSt7__cxx1112basic_stringIcSt11char_traitsIcESaIcEED1Ev@plt>
    78a3:	48 8d 95 90 fc ff ff 	lea    -0x370(%rbp),%rdx
    78aa:	48 8d 85 40 fc ff ff 	lea    -0x3c0(%rbp),%rax
    78b1:	48 89 d6             	mov    %rdx,%rsi
    78b4:	48 89 c7             	mov    %rax,%rdi
    78b7:	e8 7a 1e 00 00       	call   9736 <_ZNSt3setINSt7__cxx1112basic_stringIcSt11char_traitsIcESaIcEEESt4lessIS5_ESaIS5_EE6insertERKS5_>
    78bc:	e9 a4 02 00 00       	jmp    7b65 <_ZN10Visualizer18generateMermaidCFGERKNSt7__cxx1112basic_stringIcSt11char_traitsIcESaIcEEE+0x44d>
    78c1:	48 8d 85 90 fc ff ff 	lea    -0x370(%rbp),%rax
    78c8:	48 8d 15 12 fa 02 00 	lea    0x2fa12(%rip),%rdx        # 372e1 <_ZZNSt19_Sp_make_shared_tag5_S_tiEvE5__tag+0x49>
    78cf:	48 89 d6             	mov    %rdx,%rsi
    78d2:	48 89 c7             	mov    %rax,%rdi
    78d5:	e8 d3 1e 00 00       	call   97ad <_ZStneIcSt11char_traitsIcESaIcEEbRKNSt7__cxx1112basic_stringIT_T0_T1_EEPKS5_>
    78da:	84 c0                	test   %al,%al
    78dc:	0f 84 83 02 00 00    	je     7b65 <_ZN10Visualizer18generateMermaidCFGERKNSt7__cxx1112basic_stringIcSt11char_traitsIcESaIcEEE+0x44d>
    78e2:	48 8d 85 70 fc ff ff 	lea    -0x390(%rbp),%rax
    78e9:	ba 00 00 00 00       	mov    $0x0,%edx
    78ee:	48 8d 0d 33 fa 02 00 	lea    0x2fa33(%rip),%rcx        # 37328 <_ZZNSt19_Sp_make_shared_tag5_S_tiEvE5__tag+0x90>
    78f5:	48 89 ce             	mov    %rcx,%rsi
    78f8:	48 89 c7             	mov    %rax,%rdi
    78fb:	e8 30 e5 ff ff       	call   5e30 <_ZNKSt7__cxx1112basic_stringIcSt11char_traitsIcESaIcEE4findEPKcm@plt>
    7900:	48 83 f8 ff          	cmp    $0xffffffffffffffff,%rax
    7904:	0f 85 8c 00 00 00    	jne    7996 <_ZN10Visualizer18generateMermaidCFGERKNSt7__cxx1112basic_stringIcSt11char_traitsIcESaIcEEE+0x27e>
    790a:	48 8d 85 70 fc ff ff 	lea    -0x390(%rbp),%rax
    7911:	ba 00 00 00 00       	mov    $0x0,%edx
    7916:	48 8d 0d 10 fa 02 00 	lea    0x2fa10(%rip),%rcx        # 3732d <_ZZNSt19_Sp_make_shared_tag5_S_tiEvE5__tag+0x95>
    791d:	48 89 ce             	mov    %rcx,%rsi
    7920:	48 89 c7             	mov    %rax,%rdi
    7923:	e8 08 e5 ff ff       	call   5e30 <_ZNKSt7__cxx1112basic_stringIcSt11char_traitsIcESaIcEE4findEPKcm@plt>
    7928:	48 83 f8 ff          	cmp    $0xffffffffffffffff,%rax
    792c:	75 68                	jne    7996 <_ZN10Visualizer18generateMermaidCFGERKNSt7__cxx1112basic_stringIcSt11char_traitsIcESaIcEEE+0x27e>
    792e:	48 8d 85 70 fc ff ff 	lea    -0x390(%rbp),%rax
    7935:	ba 00 00 00 00       	mov    $0x0,%edx
    793a:	48 8d 0d f0 f9 02 00 	lea    0x2f9f0(%rip),%rcx        # 37331 <_ZZNSt19_Sp_make_shared_tag5_S_tiEvE5__tag+0x99>
    7941:	48 89 ce             	mov    %rcx,%rsi
    7944:	48 89 c7             	mov    %rax,%rdi
    7947:	e8 e4 e4 ff ff       	call   5e30 <_ZNKSt7__cxx1112basic_stringIcSt11char_traitsIcESaIcEE4findEPKcm@plt>
    794c:	48 89 c3             	mov    %rax,%rbx
    794f:	48 8d 85 70 fc ff ff 	lea    -0x390(%rbp),%rax
    7956:	ba 00 00 00 00       	mov    $0x0,%edx
    795b:	48 8d 0d cf f9 02 00 	lea    0x2f9cf(%rip),%rcx        # 37331 <_ZZNSt19_Sp_make_shared_tag5_S_tiEvE5__tag+0x99>
    7962:	48 89 ce             	mov    %rcx,%rsi
    7965:	48 89 c7             	mov    %rax,%rdi
    7968:	e8 93 df ff ff       	call   5900 <_ZNKSt7__cxx1112basic_stringIcSt11char_traitsIcESaIcEE13find_first_ofEPKcm@plt>
    796d:	48 39 c3             	cmp    %rax,%rbx
    7970:	75 2b                	jne    799d <_ZN10Visualizer18generateMermaidCFGERKNSt7__cxx1112basic_stringIcSt11char_traitsIcESaIcEEE+0x285>
    7972:	48 8d 85 70 fc ff ff 	lea    -0x390(%rbp),%rax
    7979:	ba 00 00 00 00       	mov    $0x0,%edx
    797e:	48 8d 0d ac f9 02 00 	lea    0x2f9ac(%rip),%rcx        # 37331 <_ZZNSt19_Sp_make_shared_tag5_S_tiEvE5__tag+0x99>
    7985:	48 89 ce             	mov    %rcx,%rsi
    7988:	48 89 c7             	mov    %rax,%rdi
    798b:	e8 a0 e4 ff ff       	call   5e30 <_ZNKSt7__cxx1112basic_stringIcSt11char_traitsIcESaIcEE4findEPKcm@plt>
    7990:	48 83 f8 ff          	cmp    $0xffffffffffffffff,%rax
    7994:	74 07                	je     799d <_ZN10Visualizer18generateMermaidCFGERKNSt7__cxx1112basic_stringIcSt11char_traitsIcESaIcEEE+0x285>
    7996:	b8 01 00 00 00       	mov    $0x1,%eax
    799b:	eb 05                	jmp    79a2 <_ZN10Visualizer18generateMermaidCFGERKNSt7__cxx1112basic_stringIcSt11char_traitsIcESaIcEEE+0x28a>
    799d:	b8 00 00 00 00       	mov    $0x0,%eax
    79a2:	84 c0                	test   %al,%al
    79a4:	0f 84 bb 01 00 00    	je     7b65 <_ZN10Visualizer18generateMermaidCFGERKNSt7__cxx1112basic_stringIcSt11char_traitsIcESaIcEEE+0x44d>
    79aa:	48 8d 85 70 fc ff ff 	lea    -0x390(%rbp),%rax
    79b1:	48 89 c7             	mov    %rax,%rdi
    79b4:	e8 b7 de ff ff       	call   5870 <_ZNKSt7__cxx1112basic_stringIcSt11char_traitsIcESaIcEE5c_strEv@plt>
    79b9:	48 89 85 80 fb ff ff 	mov    %rax,-0x480(%rbp)
    79c0:	48 8d 95 80 fb ff ff 	lea    -0x480(%rbp),%rdx
    79c7:	48 8d 85 78 fb ff ff 	lea    -0x488(%rbp),%rax
    79ce:	48 89 d6             	mov    %rdx,%rsi
    79d1:	48 89 c7             	mov    %rax,%rdi
    79d4:	e8 01 1e 00 00       	call   97da <_ZN9__gnu_cxx17__normal_iteratorIPKcNSt7__cxx1112basic_stringIcSt11char_traitsIcESaIcEEEEC1ERKS2_>
    79d9:	e9 4a 01 00 00       	jmp    7b28 <_ZN10Visualizer18generateMermaidCFGERKNSt7__cxx1112basic_stringIcSt11char_traitsIcESaIcEEE+0x410>
    79de:	48 8d 85 f0 fb ff ff 	lea    -0x410(%rbp),%rax
    79e5:	be 01 00 00 00       	mov    $0x1,%esi
    79ea:	48 89 c7             	mov    %rax,%rdi
    79ed:	e8 f0 1b 00 00       	call   95e2 <_ZNKSt7__cxx1113match_resultsIN9__gnu_cxx17__normal_iteratorIPKcNS_12basic_stringIcSt11char_traitsIcESaIcEEEEESaINS_9sub_matchISA_EEEEixEm>
    79f2:	48 89 c2             	mov    %rax,%rdx
    79f5:	48 8d 85 b0 fc ff ff 	lea    -0x350(%rbp),%rax
    79fc:	48 89 d6             	mov    %rdx,%rsi
    79ff:	48 89 c7             	mov    %rax,%rdi
    7a02:	e8 4f 1c 00 00       	call   9656 <_ZNKSt7__cxx119sub_matchIN9__gnu_cxx17__normal_iteratorIPKcNS_12basic_stringIcSt11char_traitsIcESaIcEEEEEE3strEv>
    7a07:	48 8d 95 90 fc ff ff 	lea    -0x370(%rbp),%rdx
    7a0e:	48 8d 85 b0 fc ff ff 	lea    -0x350(%rbp),%rax
    7a15:	48 89 d6             	mov    %rdx,%rsi
    7a18:	48 89 c7             	mov    %rax,%rdi
    7a1b:	e8 0e 17 00 00       	call   912e <_ZStneIcSt11char_traitsIcESaIcEEbRKNSt7__cxx1112basic_stringIT_T0_T1_EESA_>
    7a20:	84 c0                	test   %al,%al
    7a22:	0f 84 d2 00 00 00    	je     7afa <_ZN10Visualizer18generateMermaidCFGERKNSt7__cxx1112basic_stringIcSt11char_traitsIcESaIcEEE+0x3e2>
    7a28:	48 8d 85 60 fe ff ff 	lea    -0x1a0(%rbp),%rax
    7a2f:	48 89 c7             	mov    %rax,%rdi
    7a32:	e8 f7 15 00 00       	call   902e <_ZN10Visualizer4EdgeC1Ev>
    7a37:	48 8d 95 90 fc ff ff 	lea    -0x370(%rbp),%rdx
    7a3e:	48 8d 85 60 fe ff ff 	lea    -0x1a0(%rbp),%rax
    7a45:	48 89 d6             	mov    %rdx,%rsi
    7a48:	48 89 c7             	mov    %rax,%rdi
    7a4b:	e8 30 dd ff ff       	call   5780 <_ZNSt7__cxx1112basic_stringIcSt11char_traitsIcESaIcEEaSERKS4_@plt>
    7a50:	48 8d 85 b0 fc ff ff 	lea    -0x350(%rbp),%rax
    7a57:	48 8d 95 60 fe ff ff 	lea    -0x1a0(%rbp),%rdx
    7a5e:	48 83 c2 20          	add    $0x20,%rdx
    7a62:	48 89 c6             	mov    %rax,%rsi
    7a65:	48 89 d7             	mov    %rdx,%rdi
    7a68:	e8 13 dd ff ff       	call   5780 <_ZNSt7__cxx1112basic_stringIcSt11char_traitsIcESaIcEEaSERKS4_@plt>
    7a6d:	48 8d 85 70 fc ff ff 	lea    -0x390(%rbp),%rax
    7a74:	ba 00 00 00 00       	mov    $0x0,%edx
    7a79:	48 8d 0d a8 f8 02 00 	lea    0x2f8a8(%rip),%rcx        # 37328 <_ZZNSt19_Sp_make_shared_tag5_S_tiEvE5__tag+0x90>
    7a80:	48 89 ce             	mov    %rcx,%rsi
    7a83:	48 89 c7             	mov    %rax,%rdi
    7a86:	e8 a5 e3 ff ff       	call   5e30 <_ZNKSt7__cxx1112basic_stringIcSt11char_traitsIcESaIcEE4findEPKcm@plt>
    7a8b:	48 83 f8 ff          	cmp    $0xffffffffffffffff,%rax
    7a8f:	0f 95 c0             	setne  %al
    7a92:	84 c0                	test   %al,%al
    7a94:	74 1f                	je     7ab5 <_ZN10Visualizer18generateMermaidCFGERKNSt7__cxx1112basic_stringIcSt11char_traitsIcESaIcEEE+0x39d>
    7a96:	48 8d 85 60 fe ff ff 	lea    -0x1a0(%rbp),%rax
    7a9d:	48 83 c0 40          	add    $0x40,%rax
    7aa1:	48 8d 15 8b f8 02 00 	lea    0x2f88b(%rip),%rdx        # 37333 <_ZZNSt19_Sp_make_shared_tag5_S_tiEvE5__tag+0x9b>
    7aa8:	48 89 d6             	mov    %rdx,%rsi
    7aab:	48 89 c7             	mov    %rax,%rdi
    7aae:	e8 9d e1 ff ff       	call   5c50 <_ZNSt7__cxx1112basic_stringIcSt11char_traitsIcESaIcEEaSEPKc@plt>
    7ab3:	eb 1d                	jmp    7ad2 <_ZN10Visualizer18generateMermaidCFGERKNSt7__cxx1112basic_stringIcSt11char_traitsIcESaIcEEE+0x3ba>
    7ab5:	48 8d 85 60 fe ff ff 	lea    -0x1a0(%rbp),%rax
    7abc:	48 83 c0 40          	add    $0x40,%rax
    7ac0:	48 8d 15 72 f8 02 00 	lea    0x2f872(%rip),%rdx        # 37339 <_ZZNSt19_Sp_make_shared_tag5_S_tiEvE5__tag+0xa1>
    7ac7:	48 89 d6             	mov    %rdx,%rsi
    7aca:	48 89 c7             	mov    %rax,%rdi
    7acd:	e8 7e e1 ff ff       	call   5c50 <_ZNSt7__cxx1112basic_stringIcSt11char_traitsIcESaIcEEaSEPKc@plt>
    7ad2:	48 8d 95 60 fe ff ff 	lea    -0x1a0(%rbp),%rdx
    7ad9:	48 8d 85 10 fc ff ff 	lea    -0x3f0(%rbp),%rax
    7ae0:	48 89 d6             	mov    %rdx,%rsi
    7ae3:	48 89 c7             	mov    %rax,%rdi
    7ae6:	e8 61 1d 00 00       	call   984c <_ZNSt3setIN10Visualizer4EdgeESt4lessIS1_ESaIS1_EE6insertERKS1_>
    7aeb:	48 8d 85 60 fe ff ff 	lea    -0x1a0(%rbp),%rax
    7af2:	48 89 c7             	mov    %rax,%rdi
    7af5:	e8 74 15 00 00       	call   906e <_ZN10Visualizer4EdgeD1Ev>
    7afa:	48 8d 85 f0 fb ff ff 	lea    -0x410(%rbp),%rax
    7b01:	be 00 00 00 00       	mov    $0x0,%esi
    7b06:	48 89 c7             	mov    %rax,%rdi
    7b09:	e8 d4 1a 00 00       	call   95e2 <_ZNKSt7__cxx1113match_resultsIN9__gnu_cxx17__normal_iteratorIPKcNS_12basic_stringIcSt11char_traitsIcESaIcEEEEESaINS_9sub_matchISA_EEEEixEm>
    7b0e:	48 8b 40 08          	mov    0x8(%rax),%rax
    7b12:	48 89 85 78 fb ff ff 	mov    %rax,-0x488(%rbp)
    7b19:	48 8d 85 b0 fc ff ff 	lea    -0x350(%rbp),%rax
    7b20:	48 89 c7             	mov    %rax,%rdi
    7b23:	e8 58 de ff ff       	call   5980 <_ZNSt7__cxx1112basic_stringIcSt11char_traitsIcESaIcEED1Ev@plt>
    7b28:	48 8d 85 70 fc ff ff 	lea    -0x390(%rbp),%rax
    7b2f:	48 89 c7             	mov    %rax,%rdi
    7b32:	e8 89 dc ff ff       	call   57c0 <_ZNKSt7__cxx1112basic_stringIcSt11char_traitsIcESaIcEE4cendEv@plt>
    7b37:	48 89 c6             	mov    %rax,%rsi
    7b3a:	48 8d 8d d0 fb ff ff 	lea    -0x430(%rbp),%rcx
    7b41:	48 8d 95 f0 fb ff ff 	lea    -0x410(%rbp),%rdx
    7b48:	48 8b 85 78 fb ff ff 	mov    -0x488(%rbp),%rax
    7b4f:	41 b8 00 00 00 00    	mov    $0x0,%r8d
    7b55:	48 89 c7             	mov    %rax,%rdi
    7b58:	e8 9e 1c 00 00       	call   97fb <_ZSt12regex_searchIN9__gnu_cxx17__normal_iteratorIPKcNSt7__cxx1112basic_stringIcSt11char_traitsIcESaIcEEEEESaINS4_9sub_matchISA_EEEcNS4_12regex_traitsIcEEEbT_SG_RNS4_13match_resultsISG_T0_EERKNS4_11basic_regexIT1_T2_EENSt15regex_constants15match_flag_typeE>
    7b5d:	84 c0                	test   %al,%al
    7b5f:	0f 85 79 fe ff ff    	jne    79de <_ZN10Visualizer18generateMermaidCFGERKNSt7__cxx1112basic_stringIcSt11char_traitsIcESaIcEEE+0x2c6>
    7b65:	48 8d 85 f0 fb ff ff 	lea    -0x410(%rbp),%rax
    7b6c:	48 89 c7             	mov    %rax,%rdi
    7b6f:	e8 9a 14 00 00       	call   900e <_ZNSt7__cxx1113match_resultsIN9__gnu_cxx17__normal_iteratorIPKcNS_12basic_stringIcSt11char_traitsIcESaIcEEEEESaINS_9sub_matchISA_EEEED1Ev>
    7b74:	48 8d 95 70 fc ff ff 	lea    -0x390(%rbp),%rdx
    7b7b:	48 8d 85 d0 fc ff ff 	lea    -0x330(%rbp),%rax
    7b82:	48 89 d6             	mov    %rdx,%rsi
    7b85:	48 89 c7             	mov    %rax,%rdi
    7b88:	e8 23 dc ff ff       	call   57b0 <_ZSt7getlineIcSt11char_traitsIcESaIcEERSt13basic_istreamIT_T0_ES7_RNSt7__cxx1112basic_stringIS4_S5_T1_EE@plt>
    7b8d:	48 8b 10             	mov    (%rax),%rdx
    7b90:	48 83 ea 18          	sub    $0x18,%rdx
    7b94:	48 8b 12             	mov    (%rdx),%rdx
    7b97:	48 01 d0             	add    %rdx,%rax
    7b9a:	48 89 c7             	mov    %rax,%rdi
    7b9d:	e8 4e e0 ff ff       	call   5bf0 <_ZNKSt9basic_iosIcSt11char_traitsIcEEcvbEv@plt>
    7ba2:	84 c0                	test   %al,%al
    7ba4:	0f 85 73 fc ff ff    	jne    781d <_ZN10Visualizer18generateMermaidCFGERKNSt7__cxx1112basic_stringIcSt11char_traitsIcESaIcEEE+0x105>
    7baa:	48 8d 85 60 fe ff ff 	lea    -0x1a0(%rbp),%rax
    7bb1:	48 89 c7             	mov    %rax,%rdi
    7bb4:	e8 47 de ff ff       	call   5a00 <_ZNSt7__cxx1118basic_stringstreamIcSt11char_traitsIcESaIcEEC1Ev@plt>
    7bb9:	48 8d 85 60 fe ff ff 	lea    -0x1a0(%rbp),%rax
    7bc0:	48 83 c0 10          	add    $0x10,%rax
    7bc4:	48 8d 15 77 f7 02 00 	lea    0x2f777(%rip),%rdx        # 37342 <_ZZNSt19_Sp_make_shared_tag5_S_tiEvE5__tag+0xaa>
    7bcb:	48 89 d6             	mov    %rdx,%rsi
    7bce:	48 89 c7             	mov    %rax,%rdi
    7bd1:	e8 fa de ff ff       	call   5ad0 <_ZStlsISt11char_traitsIcEERSt13basic_ostreamIcT_ES5_PKc@plt>
    7bd6:	48 8d 85 60 fe ff ff 	lea    -0x1a0(%rbp),%rax
    7bdd:	48 83 c0 10          	add    $0x10,%rax
    7be1:	48 8d 15 68 f7 02 00 	lea    0x2f768(%rip),%rdx        # 37350 <_ZZNSt19_Sp_make_shared_tag5_S_tiEvE5__tag+0xb8>
    7be8:	48 89 d6             	mov    %rdx,%rsi
    7beb:	48 89 c7             	mov    %rax,%rdi
    7bee:	e8 dd de ff ff       	call   5ad0 <_ZStlsISt11char_traitsIcEERSt13basic_ostreamIcT_ES5_PKc@plt>
    7bf3:	48 8d 85 40 fc ff ff 	lea    -0x3c0(%rbp),%rax
    7bfa:	48 89 85 88 fb ff ff 	mov    %rax,-0x478(%rbp)
    7c01:	48 8b 85 88 fb ff ff 	mov    -0x478(%rbp),%rax
    7c08:	48 89 c7             	mov    %rax,%rdi
    7c0b:	e8 b4 1c 00 00       	call   98c4 <_ZNKSt3setINSt7__cxx1112basic_stringIcSt11char_traitsIcESaIcEEESt4lessIS5_ESaIS5_EE5beginEv>
    7c10:	48 89 85 80 fb ff ff 	mov    %rax,-0x480(%rbp)
    7c17:	48 8b 85 88 fb ff ff 	mov    -0x478(%rbp),%rax
    7c1e:	48 89 c7             	mov    %rax,%rdi
    7c21:	e8 bc 1c 00 00       	call   98e2 <_ZNKSt3setINSt7__cxx1112basic_stringIcSt11char_traitsIcESaIcEEESt4lessIS5_ESaIS5_EE3endEv>
    7c26:	48 89 85 f0 fb ff ff 	mov    %rax,-0x410(%rbp)
    7c2d:	e9 96 00 00 00       	jmp    7cc8 <_ZN10Visualizer18generateMermaidCFGERKNSt7__cxx1112basic_stringIcSt11char_traitsIcESaIcEEE+0x5b0>
    7c32:	48 8d 85 80 fb ff ff 	lea    -0x480(%rbp),%rax
    7c39:	48 89 c7             	mov    %rax,%rdi
    7c3c:	e8 11 1d 00 00       	call   9952 <_ZNKSt23_Rb_tree_const_iteratorINSt7__cxx1112basic_stringIcSt11char_traitsIcESaIcEEEEdeEv>
    7c41:	48 89 85 a0 fb ff ff 	mov    %rax,-0x460(%rbp)
    7c48:	48 8d 85 60 fe ff ff 	lea    -0x1a0(%rbp),%rax
    7c4f:	48 83 c0 10          	add    $0x10,%rax
    7c53:	48 8d 15 2c f7 02 00 	lea    0x2f72c(%rip),%rdx        # 37386 <_ZZNSt19_Sp_make_shared_tag5_S_tiEvE5__tag+0xee>
    7c5a:	48 89 d6             	mov    %rdx,%rsi
    7c5d:	48 89 c7             	mov    %rax,%rdi
    7c60:	e8 6b de ff ff       	call   5ad0 <_ZStlsISt11char_traitsIcEERSt13basic_ostreamIcT_ES5_PKc@plt>
    7c65:	48 89 c2             	mov    %rax,%rdx
    7c68:	48 8b 85 a0 fb ff ff 	mov    -0x460(%rbp),%rax
    7c6f:	48 89 c6             	mov    %rax,%rsi
    7c72:	48 89 d7             	mov    %rdx,%rdi
    7c75:	e8 06 de ff ff       	call   5a80 <_ZStlsIcSt11char_traitsIcESaIcEERSt13basic_ostreamIT_T0_ES7_RKNSt7__cxx1112basic_stringIS4_S5_T1_EE@plt>
    7c7a:	48 89 c2             	mov    %rax,%rdx
    7c7d:	48 8d 05 05 f7 02 00 	lea    0x2f705(%rip),%rax        # 37389 <_ZZNSt19_Sp_make_shared_tag5_S_tiEvE5__tag+0xf1>
    7c84:	48 89 c6             	mov    %rax,%rsi
    7c87:	48 89 d7             	mov    %rdx,%rdi
    7c8a:	e8 41 de ff ff       	call   5ad0 <_ZStlsISt11char_traitsIcEERSt13basic_ostreamIcT_ES5_PKc@plt>
    7c8f:	48 89 c2             	mov    %rax,%rdx
    7c92:	48 8b 85 a0 fb ff ff 	mov    -0x460(%rbp),%rax
    7c99:	48 89 c6             	mov    %rax,%rsi
    7c9c:	48 89 d7             	mov    %rdx,%rdi
    7c9f:	e8 dc dd ff ff       	call   5a80 <_ZStlsIcSt11char_traitsIcESaIcEERSt13basic_ostreamIT_T0_ES7_RKNSt7__cxx1112basic_stringIS4_S5_T1_EE@plt>
    7ca4:	48 89 c2             	mov    %rax,%rdx
    7ca7:	48 8d 05 dd f6 02 00 	lea    0x2f6dd(%rip),%rax        # 3738b <_ZZNSt19_Sp_make_shared_tag5_S_tiEvE5__tag+0xf3>
    7cae:	48 89 c6             	mov    %rax,%rsi
    7cb1:	48 89 d7             	mov    %rdx,%rdi
    7cb4:	e8 17 de ff ff       	call   5ad0 <_ZStlsISt11char_traitsIcEERSt13basic_ostreamIcT_ES5_PKc@plt>
    7cb9:	48 8d 85 80 fb ff ff 	lea    -0x480(%rbp),%rax
    7cc0:	48 89 c7             	mov    %rax,%rdi
    7cc3:	e8 5e 1c 00 00       	call   9926 <_ZNSt23_Rb_tree_const_iteratorINSt7__cxx1112basic_stringIcSt11char_traitsIcESaIcEEEEppEv>
    7cc8:	48 8d 95 f0 fb ff ff 	lea    -0x410(%rbp),%rdx
    7ccf:	48 8d 85 80 fb ff ff 	lea    -0x480(%rbp),%rax
    7cd6:	48 89 d6             	mov    %rdx,%rsi
    7cd9:	48 89 c7             	mov    %rax,%rdi
    7cdc:	e8 1f 1c 00 00       	call   9900 <_ZStneRKSt23_Rb_tree_const_iteratorINSt7__cxx1112basic_stringIcSt11char_traitsIcESaIcEEEES8_>
    7ce1:	84 c0                	test   %al,%al
    7ce3:	0f 85 49 ff ff ff    	jne    7c32 <_ZN10Visualizer18generateMermaidCFGERKNSt7__cxx1112basic_stringIcSt11char_traitsIcESaIcEEE+0x51a>
    7ce9:	48 8d 85 10 fc ff ff 	lea    -0x3f0(%rbp),%rax
    7cf0:	48 89 85 90 fb ff ff 	mov    %rax,-0x470(%rbp)
    7cf7:	48 8b 85 90 fb ff ff 	mov    -0x470(%rbp),%rax
    7cfe:	48 89 c7             	mov    %rax,%rdi
    7d01:	e8 6e 1c 00 00       	call   9974 <_ZNKSt3setIN10Visualizer4EdgeESt4lessIS1_ESaIS1_EE5beginEv>
    7d06:	48 89 85 80 fb ff ff 	mov    %rax,-0x480(%rbp)
    7d0d:	48 8b 85 90 fb ff ff 	mov    -0x470(%rbp),%rax
    7d14:	48 89 c7             	mov    %rax,%rdi
    7d17:	e8 76 1c 00 00       	call   9992 <_ZNKSt3setIN10Visualizer4EdgeESt4lessIS1_ESaIS1_EE3endEv>
    7d1c:	48 89 85 f0 fb ff ff 	mov    %rax,-0x410(%rbp)
    7d23:	e9 c8 00 00 00       	jmp    7df0 <_ZN10Visualizer18generateMermaidCFGERKNSt7__cxx1112basic_stringIcSt11char_traitsIcESaIcEEE+0x6d8>
    7d28:	48 8d 85 80 fb ff ff 	lea    -0x480(%rbp),%rax
    7d2f:	48 89 c7             	mov    %rax,%rdi
    7d32:	e8 cb 1c 00 00       	call   9a02 <_ZNKSt23_Rb_tree_const_iteratorIN10Visualizer4EdgeEEdeEv>
    7d37:	48 89 85 98 fb ff ff 	mov    %rax,-0x468(%rbp)
    7d3e:	48 8d 85 60 fe ff ff 	lea    -0x1a0(%rbp),%rax
    7d45:	48 83 c0 10          	add    $0x10,%rax
    7d49:	48 8d 15 36 f6 02 00 	lea    0x2f636(%rip),%rdx        # 37386 <_ZZNSt19_Sp_make_shared_tag5_S_tiEvE5__tag+0xee>
    7d50:	48 89 d6             	mov    %rdx,%rsi
    7d53:	48 89 c7             	mov    %rax,%rdi
    7d56:	e8 75 dd ff ff       	call   5ad0 <_ZStlsISt11char_traitsIcEERSt13basic_ostreamIcT_ES5_PKc@plt>
    7d5b:	48 89 c2             	mov    %rax,%rdx
    7d5e:	48 8b 85 98 fb ff ff 	mov    -0x468(%rbp),%rax
    7d65:	48 89 c6             	mov    %rax,%rsi
    7d68:	48 89 d7             	mov    %rdx,%rdi
    7d6b:	e8 10 dd ff ff       	call   5a80 <_ZStlsIcSt11char_traitsIcESaIcEERSt13basic_ostreamIT_T0_ES7_RKNSt7__cxx1112basic_stringIS4_S5_T1_EE@plt>
    7d70:	48 89 c2             	mov    %rax,%rdx
    7d73:	48 8d 05 14 f6 02 00 	lea    0x2f614(%rip),%rax        # 3738e <_ZZNSt19_Sp_make_shared_tag5_S_tiEvE5__tag+0xf6>
    7d7a:	48 89 c6             	mov    %rax,%rsi
    7d7d:	48 89 d7             	mov    %rdx,%rdi
    7d80:	e8 4b dd ff ff       	call   5ad0 <_ZStlsISt11char_traitsIcEERSt13basic_ostreamIcT_ES5_PKc@plt>
    7d85:	48 89 c2             	mov    %rax,%rdx
    7d88:	48 8b 85 98 fb ff ff 	mov    -0x468(%rbp),%rax
    7d8f:	48 83 c0 40          	add    $0x40,%rax
    7d93:	48 89 c6             	mov    %rax,%rsi
    7d96:	48 89 d7             	mov    %rdx,%rdi
    7d99:	e8 e2 dc ff ff       	call   5a80 <_ZStlsIcSt11char_traitsIcESaIcEERSt13basic_ostreamIT_T0_ES7_RKNSt7__cxx1112basic_stringIS4_S5_T1_EE@plt>
    7d9e:	48 89 c2             	mov    %rax,%rdx
    7da1:	48 8d 05 eb f5 02 00 	lea    0x2f5eb(%rip),%rax        # 37393 <_ZZNSt19_Sp_make_shared_tag5_S_tiEvE5__tag+0xfb>
    7da8:	48 89 c6             	mov    %rax,%rsi
    7dab:	48 89 d7             	mov    %rdx,%rdi
    7dae:	e8 1d dd ff ff       	call   5ad0 <_ZStlsISt11char_traitsIcEERSt13basic_ostreamIcT_ES5_PKc@plt>
    7db3:	48 89 c2             	mov    %rax,%rdx
    7db6:	48 8b 85 98 fb ff ff 	mov    -0x468(%rbp),%rax
    7dbd:	48 83 c0 20          	add    $0x20,%rax
    7dc1:	48 89 c6             	mov    %rax,%rsi
    7dc4:	48 89 d7             	mov    %rdx,%rdi
    7dc7:	e8 b4 dc ff ff       	call   5a80 <_ZStlsIcSt11char_traitsIcESaIcEERSt13basic_ostreamIT_T0_ES7_RKNSt7__cxx1112basic_stringIS4_S5_T1_EE@plt>
    7dcc:	48 89 c2             	mov    %rax,%rdx
    7dcf:	48 8d 05 c3 f5 02 00 	lea    0x2f5c3(%rip),%rax        # 37399 <_ZZNSt19_Sp_make_shared_tag5_S_tiEvE5__tag+0x101>
    7dd6:	48 89 c6             	mov    %rax,%rsi
    7dd9:	48 89 d7             	mov    %rdx,%rdi
    7ddc:	e8 ef dc ff ff       	call   5ad0 <_ZStlsISt11char_traitsIcEERSt13basic_ostreamIcT_ES5_PKc@plt>
    7de1:	48 8d 85 80 fb ff ff 	lea    -0x480(%rbp),%rax
    7de8:	48 89 c7             	mov    %rax,%rdi
    7deb:	e8 e6 1b 00 00       	call   99d6 <_ZNSt23_Rb_tree_const_iteratorIN10Visualizer4EdgeEEppEv>
    7df0:	48 8d 95 f0 fb ff ff 	lea    -0x410(%rbp),%rdx
    7df7:	48 8d 85 80 fb ff ff 	lea    -0x480(%rbp),%rax
    7dfe:	48 89 d6             	mov    %rdx,%rsi
    7e01:	48 89 c7             	mov    %rax,%rdi
    7e04:	e8 a7 1b 00 00       	call   99b0 <_ZStneRKSt23_Rb_tree_const_iteratorIN10Visualizer4EdgeEES4_>
    7e09:	84 c0                	test   %al,%al
    7e0b:	0f 85 17 ff ff ff    	jne    7d28 <_ZN10Visualizer18generateMermaidCFGERKNSt7__cxx1112basic_stringIcSt11char_traitsIcESaIcEEE+0x610>
    7e11:	48 8b 85 68 fb ff ff 	mov    -0x498(%rbp),%rax
    7e18:	48 8d 95 60 fe ff ff 	lea    -0x1a0(%rbp),%rdx
    7e1f:	48 89 d6             	mov    %rdx,%rsi
    7e22:	48 89 c7             	mov    %rax,%rdi
    7e25:	e8 96 dc ff ff       	call   5ac0 <_ZNKSt7__cxx1118basic_stringstreamIcSt11char_traitsIcESaIcEE3strEv@plt>
    7e2a:	90                   	nop
    7e2b:	48 8d 85 60 fe ff ff 	lea    -0x1a0(%rbp),%rax
    7e32:	48 89 c7             	mov    %rax,%rdi
    7e35:	e8 f6 db ff ff       	call   5a30 <_ZNSt7__cxx1118basic_stringstreamIcSt11char_traitsIcESaIcEED1Ev@plt>
    7e3a:	48 8d 85 d0 fb ff ff 	lea    -0x430(%rbp),%rax
    7e41:	48 89 c7             	mov    %rax,%rdi
    7e44:	e8 4f 16 00 00       	call   9498 <_ZNSt7__cxx1111basic_regexIcNS_12regex_traitsIcEEED1Ev>
    7e49:	48 8d 85 b0 fb ff ff 	lea    -0x450(%rbp),%rax
    7e50:	48 89 c7             	mov    %rax,%rdi
    7e53:	e8 40 16 00 00       	call   9498 <_ZNSt7__cxx1111basic_regexIcNS_12regex_traitsIcEEED1Ev>
    7e58:	48 8d 85 40 fc ff ff 	lea    -0x3c0(%rbp),%rax
    7e5f:	48 89 c7             	mov    %rax,%rdi
    7e62:	e8 87 11 00 00       	call   8fee <_ZNSt3setINSt7__cxx1112basic_stringIcSt11char_traitsIcESaIcEEESt4lessIS5_ESaIS5_EED1Ev>
    7e67:	48 8d 85 10 fc ff ff 	lea    -0x3f0(%rbp),%rax
    7e6e:	48 89 c7             	mov    %rax,%rdi
    7e71:	e8 f0 10 00 00       	call   8f66 <_ZNSt3setIN10Visualizer4EdgeESt4lessIS1_ESaIS1_EED1Ev>
    7e76:	48 8d 85 90 fc ff ff 	lea    -0x370(%rbp),%rax
    7e7d:	48 89 c7             	mov    %rax,%rdi
    7e80:	e8 fb da ff ff       	call   5980 <_ZNSt7__cxx1112basic_stringIcSt11char_traitsIcESaIcEED1Ev@plt>
    7e85:	48 8d 85 70 fc ff ff 	lea    -0x390(%rbp),%rax
    7e8c:	48 89 c7             	mov    %rax,%rdi
    7e8f:	e8 ec da ff ff       	call   5980 <_ZNSt7__cxx1112basic_stringIcSt11char_traitsIcESaIcEED1Ev@plt>
    7e94:	48 8d 85 d0 fc ff ff 	lea    -0x330(%rbp),%rax
    7e9b:	48 89 c7             	mov    %rax,%rdi
    7e9e:	e8 8d db ff ff       	call   5a30 <_ZNSt7__cxx1118basic_stringstreamIcSt11char_traitsIcESaIcEED1Ev@plt>
    7ea3:	90                   	nop
    7ea4:	48 8b 45 e8          	mov    -0x18(%rbp),%rax
    7ea8:	64 48 2b 04 25 28 00 	sub    %fs:0x28,%rax
    7eaf:	00 00 
    7eb1:	0f 84 27 01 00 00    	je     7fde <_ZN10Visualizer18generateMermaidCFGERKNSt7__cxx1112basic_stringIcSt11char_traitsIcESaIcEEE+0x8c6>
    7eb7:	e9 1d 01 00 00       	jmp    7fd9 <_ZN10Visualizer18generateMermaidCFGERKNSt7__cxx1112basic_stringIcSt11char_traitsIcESaIcEEE+0x8c1>
    7ebc:	f3 0f 1e fa          	endbr64
    7ec0:	48 89 c3             	mov    %rax,%rbx
    7ec3:	48 8d 85 40 fc ff ff 	lea    -0x3c0(%rbp),%rax
    7eca:	48 89 c7             	mov    %rax,%rdi
    7ecd:	e8 60 f1 ff ff       	call   7032 <_ZNSt15__new_allocatorIcED1Ev>
    7ed2:	90                   	nop
    7ed3:	e9 c4 00 00 00       	jmp    7f9c <_ZN10Visualizer18generateMermaidCFGERKNSt7__cxx1112basic_stringIcSt11char_traitsIcESaIcEEE+0x884>
    7ed8:	f3 0f 1e fa          	endbr64
    7edc:	48 89 c3             	mov    %rax,%rbx
    7edf:	48 8d 85 60 fe ff ff 	lea    -0x1a0(%rbp),%rax
    7ee6:	48 89 c7             	mov    %rax,%rdi
    7ee9:	e8 80 11 00 00       	call   906e <_ZN10Visualizer4EdgeD1Ev>
    7eee:	eb 07                	jmp    7ef7 <_ZN10Visualizer18generateMermaidCFGERKNSt7__cxx1112basic_stringIcSt11char_traitsIcESaIcEEE+0x7df>
    7ef0:	f3 0f 1e fa          	endbr64
    7ef4:	48 89 c3             	mov    %rax,%rbx
    7ef7:	48 8d 85 b0 fc ff ff 	lea    -0x350(%rbp),%rax
    7efe:	48 89 c7             	mov    %rax,%rdi
    7f01:	e8 7a da ff ff       	call   5980 <_ZNSt7__cxx1112basic_stringIcSt11char_traitsIcESaIcEED1Ev@plt>
    7f06:	eb 07                	jmp    7f0f <_ZN10Visualizer18generateMermaidCFGERKNSt7__cxx1112basic_stringIcSt11char_traitsIcESaIcEEE+0x7f7>
    7f08:	f3 0f 1e fa          	endbr64
    7f0c:	48 89 c3             	mov    %rax,%rbx
    7f0f:	48 8d 85 f0 fb ff ff 	lea    -0x410(%rbp),%rax
    7f16:	48 89 c7             	mov    %rax,%rdi
    7f19:	e8 f0 10 00 00       	call   900e <_ZNSt7__cxx1113match_resultsIN9__gnu_cxx17__normal_iteratorIPKcNS_12basic_stringIcSt11char_traitsIcESaIcEEEEESaINS_9sub_matchISA_EEEED1Ev>
    7f1e:	eb 1f                	jmp    7f3f <_ZN10Visualizer18generateMermaidCFGERKNSt7__cxx1112basic_stringIcSt11char_traitsIcESaIcEEE+0x827>
    7f20:	f3 0f 1e fa          	endbr64
    7f24:	48 89 c3             	mov    %rax,%rbx
    7f27:	48 8d 85 60 fe ff ff 	lea    -0x1a0(%rbp),%rax
    7f2e:	48 89 c7             	mov    %rax,%rdi
    7f31:	e8 fa da ff ff       	call   5a30 <_ZNSt7__cxx1118basic_stringstreamIcSt11char_traitsIcESaIcEED1Ev@plt>
    7f36:	eb 07                	jmp    7f3f <_ZN10Visualizer18generateMermaidCFGERKNSt7__cxx1112basic_stringIcSt11char_traitsIcESaIcEEE+0x827>
    7f38:	f3 0f 1e fa          	endbr64
    7f3c:	48 89 c3             	mov    %rax,%rbx
    7f3f:	48 8d 85 d0 fb ff ff 	lea    -0x430(%rbp),%rax
    7f46:	48 89 c7             	mov    %rax,%rdi
    7f49:	e8 4a 15 00 00       	call   9498 <_ZNSt7__cxx1111basic_regexIcNS_12regex_traitsIcEEED1Ev>
    7f4e:	eb 07                	jmp    7f57 <_ZN10Visualizer18generateMermaidCFGERKNSt7__cxx1112basic_stringIcSt11char_traitsIcESaIcEEE+0x83f>
    7f50:	f3 0f 1e fa          	endbr64
    7f54:	48 89 c3             	mov    %rax,%rbx
    7f57:	48 8d 85 b0 fb ff ff 	lea    -0x450(%rbp),%rax
    7f5e:	48 89 c7             	mov    %rax,%rdi
    7f61:	e8 32 15 00 00       	call   9498 <_ZNSt7__cxx1111basic_regexIcNS_12regex_traitsIcEEED1Ev>
    7f66:	eb 07                	jmp    7f6f <_ZN10Visualizer18generateMermaidCFGERKNSt7__cxx1112basic_stringIcSt11char_traitsIcESaIcEEE+0x857>
    7f68:	f3 0f 1e fa          	endbr64
    7f6c:	48 89 c3             	mov    %rax,%rbx
    7f6f:	48 8d 85 40 fc ff ff 	lea    -0x3c0(%rbp),%rax
    7f76:	48 89 c7             	mov    %rax,%rdi
    7f79:	e8 70 10 00 00       	call   8fee <_ZNSt3setINSt7__cxx1112basic_stringIcSt11char_traitsIcESaIcEEESt4lessIS5_ESaIS5_EED1Ev>
    7f7e:	48 8d 85 10 fc ff ff 	lea    -0x3f0(%rbp),%rax
    7f85:	48 89 c7             	mov    %rax,%rdi
    7f88:	e8 d9 0f 00 00       	call   8f66 <_ZNSt3setIN10Visualizer4EdgeESt4lessIS1_ESaIS1_EED1Ev>
    7f8d:	48 8d 85 90 fc ff ff 	lea    -0x370(%rbp),%rax
    7f94:	48 89 c7             	mov    %rax,%rdi
    7f97:	e8 e4 d9 ff ff       	call   5980 <_ZNSt7__cxx1112basic_stringIcSt11char_traitsIcESaIcEED1Ev@plt>
    7f9c:	48 8d 85 70 fc ff ff 	lea    -0x390(%rbp),%rax
    7fa3:	48 89 c7             	mov    %rax,%rdi
    7fa6:	e8 d5 d9 ff ff       	call   5980 <_ZNSt7__cxx1112basic_stringIcSt11char_traitsIcESaIcEED1Ev@plt>
    7fab:	48 8d 85 d0 fc ff ff 	lea    -0x330(%rbp),%rax
    7fb2:	48 89 c7             	mov    %rax,%rdi
    7fb5:	e8 76 da ff ff       	call   5a30 <_ZNSt7__cxx1118basic_stringstreamIcSt11char_traitsIcESaIcEED1Ev@plt>
    7fba:	48 89 d8             	mov    %rbx,%rax
    7fbd:	48 8b 55 e8          	mov    -0x18(%rbp),%rdx
    7fc1:	64 48 2b 14 25 28 00 	sub    %fs:0x28,%rdx
    7fc8:	00 00 
    7fca:	74 05                	je     7fd1 <_ZN10Visualizer18generateMermaidCFGERKNSt7__cxx1112basic_stringIcSt11char_traitsIcESaIcEEE+0x8b9>
    7fcc:	e8 af db ff ff       	call   5b80 <__stack_chk_fail@plt>
    7fd1:	48 89 c7             	mov    %rax,%rdi
    7fd4:	e8 e7 dd ff ff       	call   5dc0 <_Unwind_Resume@plt>
    7fd9:	e8 a2 db ff ff       	call   5b80 <__stack_chk_fail@plt>
    7fde:	48 8b 85 68 fb ff ff 	mov    -0x498(%rbp),%rax
    7fe5:	48 8b 5d f8          	mov    -0x8(%rbp),%rbx
    7fe9:	c9                   	leave
    7fea:	c3                   	ret

0000000000007feb <_ZnwmPv>:
    7feb:	f3 0f 1e fa          	endbr64
    7fef:	55                   	push   %rbp
    7ff0:	48 89 e5             	mov    %rsp,%rbp
    7ff3:	48 89 7d f8          	mov    %rdi,-0x8(%rbp)
    7ff7:	48 89 75 f0          	mov    %rsi,-0x10(%rbp)
    7ffb:	48 8b 45 f0          	mov    -0x10(%rbp),%rax
    7fff:	5d                   	pop    %rbp
    8000:	c3                   	ret

0000000000008001 <_ZdlPvS_>:
    8001:	f3 0f 1e fa          	endbr64
    8005:	55                   	push   %rbp
    8006:	48 89 e5             	mov    %rsp,%rbp
    8009:	48 89 7d f8          	mov    %rdi,-0x8(%rbp)
    800d:	48 89 75 f0          	mov    %rsi,-0x10(%rbp)
    8011:	90                   	nop
    8012:	5d                   	pop    %rbp
    8013:	c3                   	ret

0000000000008014 <_ZN9__gnu_cxx5__ops16__iter_less_iterEv>:
    8014:	f3 0f 1e fa          	endbr64
    8018:	55                   	push   %rbp
    8019:	48 89 e5             	mov    %rsp,%rbp
    801c:	90                   	nop
    801d:	5d                   	pop    %rbp
    801e:	c3                   	ret
    801f:	90                   	nop

0000000000008020 <_ZN9__gnu_cxx5__ops14_Iter_less_valC1ENS0_15_Iter_less_iterE>:
    8020:	f3 0f 1e fa          	endbr64
    8024:	55                   	push   %rbp
    8025:	48 89 e5             	mov    %rsp,%rbp
    8028:	48 89 7d f8          	mov    %rdi,-0x8(%rbp)
    802c:	90                   	nop
    802d:	5d                   	pop    %rbp
    802e:	c3                   	ret

000000000000802f <_ZN9__gnu_cxx5__ops15__iter_less_valEv>:
    802f:	f3 0f 1e fa          	endbr64
    8033:	55                   	push   %rbp
    8034:	48 89 e5             	mov    %rsp,%rbp
    8037:	90                   	nop
    8038:	5d                   	pop    %rbp
    8039:	c3                   	ret

000000000000803a <_ZN9__gnu_cxx5__ops15__val_comp_iterENS0_15_Iter_less_iterE>:
    803a:	f3 0f 1e fa          	endbr64
    803e:	55                   	push   %rbp
    803f:	48 89 e5             	mov    %rsp,%rbp
    8042:	90                   	nop
    8043:	5d                   	pop    %rbp
    8044:	c3                   	ret

0000000000008045 <_ZN9__gnu_cxx5__ops20__iter_equal_to_iterEv>:
    8045:	f3 0f 1e fa          	endbr64
    8049:	55                   	push   %rbp
    804a:	48 89 e5             	mov    %rsp,%rbp
    804d:	90                   	nop
    804e:	5d                   	pop    %rbp
    804f:	c3                   	ret

0000000000008050 <_ZSt17__size_to_integerm>:
    8050:	f3 0f 1e fa          	endbr64
    8054:	55                   	push   %rbp
    8055:	48 89 e5             	mov    %rsp,%rbp
    8058:	48 89 7d f8          	mov    %rdi,-0x8(%rbp)
    805c:	48 8b 45 f8          	mov    -0x8(%rbp),%rax
    8060:	5d                   	pop    %rbp
    8061:	c3                   	ret

0000000000008062 <_ZNSt15_Rb_tree_headerC1Ev>:
    8062:	f3 0f 1e fa          	endbr64
    8066:	55                   	push   %rbp
    8067:	48 89 e5             	mov    %rsp,%rbp
    806a:	48 83 ec 10          	sub    $0x10,%rsp
    806e:	48 89 7d f8          	mov    %rdi,-0x8(%rbp)
    8072:	48 8b 45 f8          	mov    -0x8(%rbp),%rax
    8076:	c7 00 00 00 00 00    	movl   $0x0,(%rax)
    807c:	48 8b 45 f8          	mov    -0x8(%rbp),%rax
    8080:	48 89 c7             	mov    %rax,%rdi
    8083:	e8 04 00 00 00       	call   808c <_ZNSt15_Rb_tree_header8_M_resetEv>
    8088:	90                   	nop
    8089:	c9                   	leave
    808a:	c3                   	ret
    808b:	90                   	nop

000000000000808c <_ZNSt15_Rb_tree_header8_M_resetEv>:
    808c:	f3 0f 1e fa          	endbr64
    8090:	55                   	push   %rbp
    8091:	48 89 e5             	mov    %rsp,%rbp
    8094:	48 89 7d f8          	mov    %rdi,-0x8(%rbp)
    8098:	48 8b 45 f8          	mov    -0x8(%rbp),%rax
    809c:	48 c7 40 08 00 00 00 	movq   $0x0,0x8(%rax)
    80a3:	00 
    80a4:	48 8b 55 f8          	mov    -0x8(%rbp),%rdx
    80a8:	48 8b 45 f8          	mov    -0x8(%rbp),%rax
    80ac:	48 89 50 10          	mov    %rdx,0x10(%rax)
    80b0:	48 8b 55 f8          	mov    -0x8(%rbp),%rdx
    80b4:	48 8b 45 f8          	mov    -0x8(%rbp),%rax
    80b8:	48 89 50 18          	mov    %rdx,0x18(%rax)
    80bc:	48 8b 45 f8          	mov    -0x8(%rbp),%rax
    80c0:	48 c7 40 20 00 00 00 	movq   $0x0,0x20(%rax)
    80c7:	00 
    80c8:	90                   	nop
    80c9:	5d                   	pop    %rbp
    80ca:	c3                   	ret
    80cb:	90                   	nop

00000000000080cc <_ZNKSt17integral_constantIbLb1EEcvbEv>:
    80cc:	f3 0f 1e fa          	endbr64
    80d0:	55                   	push   %rbp
    80d1:	48 89 e5             	mov    %rsp,%rbp
    80d4:	48 89 7d f8          	mov    %rdi,-0x8(%rbp)
    80d8:	b8 01 00 00 00       	mov    $0x1,%eax
    80dd:	5d                   	pop    %rbp
    80de:	c3                   	ret
    80df:	90                   	nop

00000000000080e0 <_ZNK10Visualizer4EdgeltERKS0_>:
    80e0:	f3 0f 1e fa          	endbr64
    80e4:	55                   	push   %rbp
    80e5:	48 89 e5             	mov    %rsp,%rbp
    80e8:	48 83 ec 10          	sub    $0x10,%rsp
    80ec:	48 89 7d f8          	mov    %rdi,-0x8(%rbp)
    80f0:	48 89 75 f0          	mov    %rsi,-0x10(%rbp)
    80f4:	48 8b 55 f0          	mov    -0x10(%rbp),%rdx
    80f8:	48 8b 45 f8          	mov    -0x8(%rbp),%rax
    80fc:	48 89 d6             	mov    %rdx,%rsi
    80ff:	48 89 c7             	mov    %rax,%rdi
    8102:	e8 27 10 00 00       	call   912e <_ZStneIcSt11char_traitsIcESaIcEEbRKNSt7__cxx1112basic_stringIT_T0_T1_EESA_>
    8107:	84 c0                	test   %al,%al
    8109:	74 15                	je     8120 <_ZNK10Visualizer4EdgeltERKS0_+0x40>
    810b:	48 8b 55 f0          	mov    -0x10(%rbp),%rdx
    810f:	48 8b 45 f8          	mov    -0x8(%rbp),%rax
    8113:	48 89 d6             	mov    %rdx,%rsi
    8116:	48 89 c7             	mov    %rax,%rdi
    8119:	e8 3c 10 00 00       	call   915a <_ZStltIcSt11char_traitsIcESaIcEEbRKNSt7__cxx1112basic_stringIT_T0_T1_EESA_>
    811e:	eb 58                	jmp    8178 <_ZNK10Visualizer4EdgeltERKS0_+0x98>
    8120:	48 8b 45 f0          	mov    -0x10(%rbp),%rax
    8124:	48 8d 50 20          	lea    0x20(%rax),%rdx
    8128:	48 8b 45 f8          	mov    -0x8(%rbp),%rax
    812c:	48 83 c0 20          	add    $0x20,%rax
    8130:	48 89 d6             	mov    %rdx,%rsi
    8133:	48 89 c7             	mov    %rax,%rdi
    8136:	e8 f3 0f 00 00       	call   912e <_ZStneIcSt11char_traitsIcESaIcEEbRKNSt7__cxx1112basic_stringIT_T0_T1_EESA_>
    813b:	84 c0                	test   %al,%al
    813d:	74 1d                	je     815c <_ZNK10Visualizer4EdgeltERKS0_+0x7c>
    813f:	48 8b 45 f0          	mov    -0x10(%rbp),%rax
    8143:	48 8d 50 20          	lea    0x20(%rax),%rdx
    8147:	48 8b 45 f8          	mov    -0x8(%rbp),%rax
    814b:	48 83 c0 20          	add    $0x20,%rax
    814f:	48 89 d6             	mov    %rdx,%rsi
    8152:	48 89 c7             	mov    %rax,%rdi
    8155:	e8 00 10 00 00       	call   915a <_ZStltIcSt11char_traitsIcESaIcEEbRKNSt7__cxx1112basic_stringIT_T0_T1_EESA_>
    815a:	eb 1c                	jmp    8178 <_ZNK10Visualizer4EdgeltERKS0_+0x98>
    815c:	48 8b 45 f0          	mov    -0x10(%rbp),%rax
    8160:	48 8d 50 40          	lea    0x40(%rax),%rdx
    8164:	48 8b 45 f8          	mov    -0x8(%rbp),%rax
    8168:	48 83 c0 40          	add    $0x40,%rax
    816c:	48 89 d6             	mov    %rdx,%rsi
    816f:	48 89 c7             	mov    %rax,%rdi
    8172:	e8 e3 0f 00 00       	call   915a <_ZStltIcSt11char_traitsIcESaIcEEbRKNSt7__cxx1112basic_stringIT_T0_T1_EESA_>
    8177:	90                   	nop
    8178:	c9                   	leave
    8179:	c3                   	ret

000000000000817a <_ZNKSt9type_info4nameEv>:
    817a:	f3 0f 1e fa          	endbr64
    817e:	55                   	push   %rbp
    817f:	48 89 e5             	mov    %rsp,%rbp
    8182:	48 89 7d f8          	mov    %rdi,-0x8(%rbp)
    8186:	48 8b 45 f8          	mov    -0x8(%rbp),%rax
    818a:	48 8b 40 08          	mov    0x8(%rax),%rax
    818e:	0f b6 00             	movzbl (%rax),%eax
    8191:	3c 2a                	cmp    $0x2a,%al
    8193:	75 0e                	jne    81a3 <_ZNKSt9type_info4nameEv+0x29>
    8195:	48 8b 45 f8          	mov    -0x8(%rbp),%rax
    8199:	48 8b 40 08          	mov    0x8(%rax),%rax
    819d:	48 83 c0 01          	add    $0x1,%rax
    81a1:	eb 08                	jmp    81ab <_ZNKSt9type_info4nameEv+0x31>
    81a3:	48 8b 45 f8          	mov    -0x8(%rbp),%rax
    81a7:	48 8b 40 08          	mov    0x8(%rax),%rax
    81ab:	5d                   	pop    %rbp
    81ac:	c3                   	ret
    81ad:	90                   	nop

00000000000081ae <_ZNKSt9type_infoeqERKS_>:
    81ae:	f3 0f 1e fa          	endbr64
    81b2:	55                   	push   %rbp
    81b3:	48 89 e5             	mov    %rsp,%rbp
    81b6:	48 83 ec 10          	sub    $0x10,%rsp
    81ba:	48 89 7d f8          	mov    %rdi,-0x8(%rbp)
    81be:	48 89 75 f0          	mov    %rsi,-0x10(%rbp)
    81c2:	e8 92 e7 ff ff       	call   6959 <_ZSt23__is_constant_evaluatedv>
    81c7:	84 c0                	test   %al,%al
    81c9:	74 0d                	je     81d8 <_ZNKSt9type_infoeqERKS_+0x2a>
    81cb:	48 8b 45 f8          	mov    -0x8(%rbp),%rax
    81cf:	48 3b 45 f0          	cmp    -0x10(%rbp),%rax
    81d3:	0f 94 c0             	sete   %al
    81d6:	eb 5e                	jmp    8236 <_ZNKSt9type_infoeqERKS_+0x88>
    81d8:	48 8b 45 f8          	mov    -0x8(%rbp),%rax
    81dc:	48 8b 50 08          	mov    0x8(%rax),%rdx
    81e0:	48 8b 45 f0          	mov    -0x10(%rbp),%rax
    81e4:	48 8b 40 08          	mov    0x8(%rax),%rax
    81e8:	48 39 c2             	cmp    %rax,%rdx
    81eb:	75 07                	jne    81f4 <_ZNKSt9type_infoeqERKS_+0x46>
    81ed:	b8 01 00 00 00       	mov    $0x1,%eax
    81f2:	eb 42                	jmp    8236 <_ZNKSt9type_infoeqERKS_+0x88>
    81f4:	48 8b 45 f8          	mov    -0x8(%rbp),%rax
    81f8:	48 8b 40 08          	mov    0x8(%rax),%rax
    81fc:	0f b6 00             	movzbl (%rax),%eax
    81ff:	3c 2a                	cmp    $0x2a,%al
    8201:	74 2d                	je     8230 <_ZNKSt9type_infoeqERKS_+0x82>
    8203:	48 8b 45 f0          	mov    -0x10(%rbp),%rax
    8207:	48 89 c7             	mov    %rax,%rdi
    820a:	e8 6b ff ff ff       	call   817a <_ZNKSt9type_info4nameEv>
    820f:	48 89 c2             	mov    %rax,%rdx
    8212:	48 8b 45 f8          	mov    -0x8(%rbp),%rax
    8216:	48 8b 40 08          	mov    0x8(%rax),%rax
    821a:	48 89 d6             	mov    %rdx,%rsi
    821d:	48 89 c7             	mov    %rax,%rdi
    8220:	e8 4b da ff ff       	call   5c70 <strcmp@plt>
    8225:	85 c0                	test   %eax,%eax
    8227:	75 07                	jne    8230 <_ZNKSt9type_infoeqERKS_+0x82>
    8229:	b8 01 00 00 00       	mov    $0x1,%eax
    822e:	eb 05                	jmp    8235 <_ZNKSt9type_infoeqERKS_+0x87>
    8230:	b8 00 00 00 00       	mov    $0x0,%eax
    8235:	90                   	nop
    8236:	c9                   	leave
    8237:	c3                   	ret

0000000000008238 <_ZStanSt13_Ios_FmtflagsS_>:
    8238:	f3 0f 1e fa          	endbr64
    823c:	55                   	push   %rbp
    823d:	48 89 e5             	mov    %rsp,%rbp
    8240:	89 7d fc             	mov    %edi,-0x4(%rbp)
    8243:	89 75 f8             	mov    %esi,-0x8(%rbp)
    8246:	8b 45 fc             	mov    -0x4(%rbp),%eax
    8249:	23 45 f8             	and    -0x8(%rbp),%eax
    824c:	5d                   	pop    %rbp
    824d:	c3                   	ret

000000000000824e <_ZStorSt13_Ios_FmtflagsS_>:
    824e:	f3 0f 1e fa          	endbr64
    8252:	55                   	push   %rbp
    8253:	48 89 e5             	mov    %rsp,%rbp
    8256:	89 7d fc             	mov    %edi,-0x4(%rbp)
    8259:	89 75 f8             	mov    %esi,-0x8(%rbp)
    825c:	8b 45 fc             	mov    -0x4(%rbp),%eax
    825f:	0b 45 f8             	or     -0x8(%rbp),%eax
    8262:	5d                   	pop    %rbp
    8263:	c3                   	ret

0000000000008264 <_ZStcoSt13_Ios_Fmtflags>:
    8264:	f3 0f 1e fa          	endbr64
    8268:	55                   	push   %rbp
    8269:	48 89 e5             	mov    %rsp,%rbp
    826c:	89 7d fc             	mov    %edi,-0x4(%rbp)
    826f:	8b 45 fc             	mov    -0x4(%rbp),%eax
    8272:	f7 d0                	not    %eax
    8274:	5d                   	pop    %rbp
    8275:	c3                   	ret

0000000000008276 <_ZStoRRSt13_Ios_FmtflagsS_>:
    8276:	f3 0f 1e fa          	endbr64
    827a:	55                   	push   %rbp
    827b:	48 89 e5             	mov    %rsp,%rbp
    827e:	48 83 ec 10          	sub    $0x10,%rsp
    8282:	48 89 7d f8          	mov    %rdi,-0x8(%rbp)
    8286:	89 75 f4             	mov    %esi,-0xc(%rbp)
    8289:	48 8b 45 f8          	mov    -0x8(%rbp),%rax
    828d:	8b 00                	mov    (%rax),%eax
    828f:	8b 55 f4             	mov    -0xc(%rbp),%edx
    8292:	89 d6                	mov    %edx,%esi
    8294:	89 c7                	mov    %eax,%edi
    8296:	e8 b3 ff ff ff       	call   824e <_ZStorSt13_Ios_FmtflagsS_>
    829b:	48 8b 55 f8          	mov    -0x8(%rbp),%rdx
    829f:	89 02                	mov    %eax,(%rdx)
    82a1:	48 8b 45 f8          	mov    -0x8(%rbp),%rax
    82a5:	c9                   	leave
    82a6:	c3                   	ret

00000000000082a7 <_ZStaNRSt13_Ios_FmtflagsS_>:
    82a7:	f3 0f 1e fa          	endbr64
    82ab:	55                   	push   %rbp
    82ac:	48 89 e5             	mov    %rsp,%rbp
    82af:	48 83 ec 10          	sub    $0x10,%rsp
    82b3:	48 89 7d f8          	mov    %rdi,-0x8(%rbp)
    82b7:	89 75 f4             	mov    %esi,-0xc(%rbp)
    82ba:	48 8b 45 f8          	mov    -0x8(%rbp),%rax
    82be:	8b 00                	mov    (%rax),%eax
    82c0:	8b 55 f4             	mov    -0xc(%rbp),%edx
    82c3:	89 d6                	mov    %edx,%esi
    82c5:	89 c7                	mov    %eax,%edi
    82c7:	e8 6c ff ff ff       	call   8238 <_ZStanSt13_Ios_FmtflagsS_>
    82cc:	48 8b 55 f8          	mov    -0x8(%rbp),%rdx
    82d0:	89 02                	mov    %eax,(%rdx)
    82d2:	48 8b 45 f8          	mov    -0x8(%rbp),%rax
    82d6:	c9                   	leave
    82d7:	c3                   	ret

00000000000082d8 <_ZNSt8ios_base4setfESt13_Ios_FmtflagsS0_>:
    82d8:	f3 0f 1e fa          	endbr64
    82dc:	55                   	push   %rbp
    82dd:	48 89 e5             	mov    %rsp,%rbp
    82e0:	48 83 ec 20          	sub    $0x20,%rsp
    82e4:	48 89 7d e8          	mov    %rdi,-0x18(%rbp)
    82e8:	89 75 e4             	mov    %esi,-0x1c(%rbp)
    82eb:	89 55 e0             	mov    %edx,-0x20(%rbp)
    82ee:	48 8b 45 e8          	mov    -0x18(%rbp),%rax
    82f2:	8b 40 18             	mov    0x18(%rax),%eax
    82f5:	89 45 fc             	mov    %eax,-0x4(%rbp)
    82f8:	8b 45 e0             	mov    -0x20(%rbp),%eax
    82fb:	89 c7                	mov    %eax,%edi
    82fd:	e8 62 ff ff ff       	call   8264 <_ZStcoSt13_Ios_Fmtflags>
    8302:	89 c2                	mov    %eax,%edx
    8304:	48 8b 45 e8          	mov    -0x18(%rbp),%rax
    8308:	48 83 c0 18          	add    $0x18,%rax
    830c:	89 d6                	mov    %edx,%esi
    830e:	48 89 c7             	mov    %rax,%rdi
    8311:	e8 91 ff ff ff       	call   82a7 <_ZStaNRSt13_Ios_FmtflagsS_>
    8316:	8b 55 e0             	mov    -0x20(%rbp),%edx
    8319:	8b 45 e4             	mov    -0x1c(%rbp),%eax
    831c:	89 d6                	mov    %edx,%esi
    831e:	89 c7                	mov    %eax,%edi
    8320:	e8 13 ff ff ff       	call   8238 <_ZStanSt13_Ios_FmtflagsS_>
    8325:	89 c2                	mov    %eax,%edx
    8327:	48 8b 45 e8          	mov    -0x18(%rbp),%rax
    832b:	48 83 c0 18          	add    $0x18,%rax
    832f:	89 d6                	mov    %edx,%esi
    8331:	48 89 c7             	mov    %rax,%rdi
    8334:	e8 3d ff ff ff       	call   8276 <_ZStoRRSt13_Ios_FmtflagsS_>
    8339:	8b 45 fc             	mov    -0x4(%rbp),%eax
    833c:	c9                   	leave
    833d:	c3                   	ret

000000000000833e <_ZSt3hexRSt8ios_base>:
    833e:	f3 0f 1e fa          	endbr64
    8342:	55                   	push   %rbp
    8343:	48 89 e5             	mov    %rsp,%rbp
    8346:	48 83 ec 10          	sub    $0x10,%rsp
    834a:	48 89 7d f8          	mov    %rdi,-0x8(%rbp)
    834e:	48 8b 45 f8          	mov    -0x8(%rbp),%rax
    8352:	ba 4a 00 00 00       	mov    $0x4a,%edx
    8357:	be 08 00 00 00       	mov    $0x8,%esi
    835c:	48 89 c7             	mov    %rax,%rdi
    835f:	e8 74 ff ff ff       	call   82d8 <_ZNSt8ios_base4setfESt13_Ios_FmtflagsS0_>
    8364:	48 8b 45 f8          	mov    -0x8(%rbp),%rax
    8368:	c9                   	leave
    8369:	c3                   	ret

000000000000836a <_ZSt3octRSt8ios_base>:
    836a:	f3 0f 1e fa          	endbr64
    836e:	55                   	push   %rbp
    836f:	48 89 e5             	mov    %rsp,%rbp
    8372:	48 83 ec 10          	sub    $0x10,%rsp
    8376:	48 89 7d f8          	mov    %rdi,-0x8(%rbp)
    837a:	48 8b 45 f8          	mov    -0x8(%rbp),%rax
    837e:	ba 4a 00 00 00       	mov    $0x4a,%edx
    8383:	be 40 00 00 00       	mov    $0x40,%esi
    8388:	48 89 c7             	mov    %rax,%rdi
    838b:	e8 48 ff ff ff       	call   82d8 <_ZNSt8ios_base4setfESt13_Ios_FmtflagsS0_>
    8390:	48 8b 45 f8          	mov    -0x8(%rbp),%rax
    8394:	c9                   	leave
    8395:	c3                   	ret

0000000000008396 <_ZNKSt5ctypeIcE7toupperEc>:
    8396:	f3 0f 1e fa          	endbr64
    839a:	55                   	push   %rbp
    839b:	48 89 e5             	mov    %rsp,%rbp
    839e:	48 83 ec 10          	sub    $0x10,%rsp
    83a2:	48 89 7d f8          	mov    %rdi,-0x8(%rbp)
    83a6:	89 f0                	mov    %esi,%eax
    83a8:	88 45 f4             	mov    %al,-0xc(%rbp)
    83ab:	48 8b 45 f8          	mov    -0x8(%rbp),%rax
    83af:	48 8b 00             	mov    (%rax),%rax
    83b2:	48 83 c0 10          	add    $0x10,%rax
    83b6:	48 8b 08             	mov    (%rax),%rcx
    83b9:	0f be 55 f4          	movsbl -0xc(%rbp),%edx
    83bd:	48 8b 45 f8          	mov    -0x8(%rbp),%rax
    83c1:	89 d6                	mov    %edx,%esi
    83c3:	48 89 c7             	mov    %rax,%rdi
    83c6:	ff d1                	call   *%rcx
    83c8:	c9                   	leave
    83c9:	c3                   	ret

00000000000083ca <_ZNKSt5ctypeIcE7tolowerEc>:
    83ca:	f3 0f 1e fa          	endbr64
    83ce:	55                   	push   %rbp
    83cf:	48 89 e5             	mov    %rsp,%rbp
    83d2:	48 83 ec 10          	sub    $0x10,%rsp
    83d6:	48 89 7d f8          	mov    %rdi,-0x8(%rbp)
    83da:	89 f0                	mov    %esi,%eax
    83dc:	88 45 f4             	mov    %al,-0xc(%rbp)
    83df:	48 8b 45 f8          	mov    -0x8(%rbp),%rax
    83e3:	48 8b 00             	mov    (%rax),%rax
    83e6:	48 83 c0 20          	add    $0x20,%rax
    83ea:	48 8b 08             	mov    (%rax),%rcx
    83ed:	0f be 55 f4          	movsbl -0xc(%rbp),%edx
    83f1:	48 8b 45 f8          	mov    -0x8(%rbp),%rax
    83f5:	89 d6                	mov    %edx,%esi
    83f7:	48 89 c7             	mov    %rax,%rdi
    83fa:	ff d1                	call   *%rcx
    83fc:	c9                   	leave
    83fd:	c3                   	ret

00000000000083fe <_ZNKSt5ctypeIcE7tolowerEPcPKc>:
    83fe:	f3 0f 1e fa          	endbr64
    8402:	55                   	push   %rbp
    8403:	48 89 e5             	mov    %rsp,%rbp
    8406:	48 83 ec 20          	sub    $0x20,%rsp
    840a:	48 89 7d f8          	mov    %rdi,-0x8(%rbp)
    840e:	48 89 75 f0          	mov    %rsi,-0x10(%rbp)
    8412:	48 89 55 e8          	mov    %rdx,-0x18(%rbp)
    8416:	48 8b 45 f8          	mov    -0x8(%rbp),%rax
    841a:	48 8b 00             	mov    (%rax),%rax
    841d:	48 83 c0 28          	add    $0x28,%rax
    8421:	4c 8b 00             	mov    (%rax),%r8
    8424:	48 8b 55 e8          	mov    -0x18(%rbp),%rdx
    8428:	48 8b 4d f0          	mov    -0x10(%rbp),%rcx
    842c:	48 8b 45 f8          	mov    -0x8(%rbp),%rax
    8430:	48 89 ce             	mov    %rcx,%rsi
    8433:	48 89 c7             	mov    %rax,%rdi
    8436:	41 ff d0             	call   *%r8
    8439:	c9                   	leave
    843a:	c3                   	ret
    843b:	90                   	nop

000000000000843c <_ZNKSt5ctypeIcE5widenEc>:
    843c:	f3 0f 1e fa          	endbr64
    8440:	55                   	push   %rbp
    8441:	48 89 e5             	mov    %rsp,%rbp
    8444:	48 83 ec 10          	sub    $0x10,%rsp
    8448:	48 89 7d f8          	mov    %rdi,-0x8(%rbp)
    844c:	89 f0                	mov    %esi,%eax
    844e:	88 45 f4             	mov    %al,-0xc(%rbp)
    8451:	48 8b 45 f8          	mov    -0x8(%rbp),%rax
    8455:	0f b6 40 38          	movzbl 0x38(%rax),%eax
    8459:	84 c0                	test   %al,%al
    845b:	74 14                	je     8471 <_ZNKSt5ctypeIcE5widenEc+0x35>
    845d:	0f b6 45 f4          	movzbl -0xc(%rbp),%eax
    8461:	0f b6 c0             	movzbl %al,%eax
    8464:	48 8b 55 f8          	mov    -0x8(%rbp),%rdx
    8468:	48 98                	cltq
    846a:	0f b6 44 02 39       	movzbl 0x39(%rdx,%rax,1),%eax
    846f:	eb 2a                	jmp    849b <_ZNKSt5ctypeIcE5widenEc+0x5f>
    8471:	48 8b 45 f8          	mov    -0x8(%rbp),%rax
    8475:	48 89 c7             	mov    %rax,%rdi
    8478:	e8 23 d7 ff ff       	call   5ba0 <_ZNKSt5ctypeIcE13_M_widen_initEv@plt>
    847d:	48 8b 45 f8          	mov    -0x8(%rbp),%rax
    8481:	48 8b 00             	mov    (%rax),%rax
    8484:	48 83 c0 30          	add    $0x30,%rax
    8488:	48 8b 08             	mov    (%rax),%rcx
    848b:	0f be 55 f4          	movsbl -0xc(%rbp),%edx
    848f:	48 8b 45 f8          	mov    -0x8(%rbp),%rax
    8493:	89 d6                	mov    %edx,%esi
    8495:	48 89 c7             	mov    %rax,%rdi
    8498:	ff d1                	call   *%rcx
    849a:	90                   	nop
    849b:	c9                   	leave
    849c:	c3                   	ret
    849d:	90                   	nop

000000000000849e <_ZNKSt5ctypeIcE6narrowEcc>:
    849e:	f3 0f 1e fa          	endbr64
    84a2:	55                   	push   %rbp
    84a3:	48 89 e5             	mov    %rsp,%rbp
    84a6:	48 83 ec 20          	sub    $0x20,%rsp
    84aa:	48 89 7d e8          	mov    %rdi,-0x18(%rbp)
    84ae:	89 f1                	mov    %esi,%ecx
    84b0:	89 d0                	mov    %edx,%eax
    84b2:	89 ca                	mov    %ecx,%edx
    84b4:	88 55 e4             	mov    %dl,-0x1c(%rbp)
    84b7:	88 45 e0             	mov    %al,-0x20(%rbp)
    84ba:	0f b6 45 e4          	movzbl -0x1c(%rbp),%eax
    84be:	0f b6 c0             	movzbl %al,%eax
    84c1:	48 8b 55 e8          	mov    -0x18(%rbp),%rdx
    84c5:	48 98                	cltq
    84c7:	0f b6 84 02 39 01 00 	movzbl 0x139(%rdx,%rax,1),%eax
    84ce:	00 
    84cf:	84 c0                	test   %al,%al
    84d1:	74 17                	je     84ea <_ZNKSt5ctypeIcE6narrowEcc+0x4c>
    84d3:	0f b6 45 e4          	movzbl -0x1c(%rbp),%eax
    84d7:	0f b6 c0             	movzbl %al,%eax
    84da:	48 8b 55 e8          	mov    -0x18(%rbp),%rdx
    84de:	48 98                	cltq
    84e0:	0f b6 84 02 39 01 00 	movzbl 0x139(%rdx,%rax,1),%eax
    84e7:	00 
    84e8:	eb 4a                	jmp    8534 <_ZNKSt5ctypeIcE6narrowEcc+0x96>
    84ea:	48 8b 45 e8          	mov    -0x18(%rbp),%rax
    84ee:	48 8b 00             	mov    (%rax),%rax
    84f1:	48 83 c0 40          	add    $0x40,%rax
    84f5:	4c 8b 00             	mov    (%rax),%r8
    84f8:	0f be 55 e0          	movsbl -0x20(%rbp),%edx
    84fc:	0f be 4d e4          	movsbl -0x1c(%rbp),%ecx
    8500:	48 8b 45 e8          	mov    -0x18(%rbp),%rax
    8504:	89 ce                	mov    %ecx,%esi
    8506:	48 89 c7             	mov    %rax,%rdi
    8509:	41 ff d0             	call   *%r8
    850c:	88 45 ff             	mov    %al,-0x1(%rbp)
    850f:	0f b6 45 ff          	movzbl -0x1(%rbp),%eax
    8513:	3a 45 e0             	cmp    -0x20(%rbp),%al
    8516:	74 18                	je     8530 <_ZNKSt5ctypeIcE6narrowEcc+0x92>
    8518:	0f b6 45 e4          	movzbl -0x1c(%rbp),%eax
    851c:	0f b6 c0             	movzbl %al,%eax
    851f:	48 8b 55 e8          	mov    -0x18(%rbp),%rdx
    8523:	48 98                	cltq
    8525:	0f b6 4d ff          	movzbl -0x1(%rbp),%ecx
    8529:	88 8c 02 39 01 00 00 	mov    %cl,0x139(%rdx,%rax,1)
    8530:	0f b6 45 ff          	movzbl -0x1(%rbp),%eax
    8534:	c9                   	leave
    8535:	c3                   	ret

0000000000008536 <_ZNKSt5ctypeIcE2isEtc>:
    8536:	f3 0f 1e fa          	endbr64
    853a:	55                   	push   %rbp
    853b:	48 89 e5             	mov    %rsp,%rbp
    853e:	48 89 7d f8          	mov    %rdi,-0x8(%rbp)
    8542:	89 f1                	mov    %esi,%ecx
    8544:	89 d0                	mov    %edx,%eax
    8546:	89 ca                	mov    %ecx,%edx
    8548:	66 89 55 f4          	mov    %dx,-0xc(%rbp)
    854c:	88 45 f0             	mov    %al,-0x10(%rbp)
    854f:	48 8b 45 f8          	mov    -0x8(%rbp),%rax
    8553:	48 8b 40 30          	mov    0x30(%rax),%rax
    8557:	0f b6 55 f0          	movzbl -0x10(%rbp),%edx
    855b:	0f b6 d2             	movzbl %dl,%edx
    855e:	48 01 d2             	add    %rdx,%rdx
    8561:	48 01 d0             	add    %rdx,%rax
    8564:	0f b7 00             	movzwl (%rax),%eax
    8567:	66 23 45 f4          	and    -0xc(%rbp),%ax
    856b:	66 85 c0             	test   %ax,%ax
    856e:	0f 95 c0             	setne  %al
    8571:	5d                   	pop    %rbp
    8572:	c3                   	ret

0000000000008573 <_ZSt16__deque_buf_sizem>:
    8573:	f3 0f 1e fa          	endbr64
    8577:	55                   	push   %rbp
    8578:	48 89 e5             	mov    %rsp,%rbp
    857b:	48 89 7d f8          	mov    %rdi,-0x8(%rbp)
    857f:	48 81 7d f8 ff 01 00 	cmpq   $0x1ff,-0x8(%rbp)
    8586:	00 
    8587:	77 10                	ja     8599 <_ZSt16__deque_buf_sizem+0x26>
    8589:	b8 00 02 00 00       	mov    $0x200,%eax
    858e:	ba 00 00 00 00       	mov    $0x0,%edx
    8593:	48 f7 75 f8          	divq   -0x8(%rbp)
    8597:	eb 05                	jmp    859e <_ZSt16__deque_buf_sizem+0x2b>
    8599:	b8 01 00 00 00       	mov    $0x1,%eax
    859e:	5d                   	pop    %rbp
    859f:	c3                   	ret

00000000000085a0 <_ZNSt16_Sp_counted_baseILN9__gnu_cxx12_Lock_policyE2EE10_M_releaseEv>:
    85a0:	f3 0f 1e fa          	endbr64
    85a4:	55                   	push   %rbp
    85a5:	48 89 e5             	mov    %rsp,%rbp
    85a8:	48 83 ec 60          	sub    $0x60,%rsp
    85ac:	48 89 7d a8          	mov    %rdi,-0x58(%rbp)
    85b0:	c6 45 bd 01          	movb   $0x1,-0x43(%rbp)
    85b4:	c6 45 be 01          	movb   $0x1,-0x42(%rbp)
    85b8:	c6 45 bf 01          	movb   $0x1,-0x41(%rbp)
    85bc:	c7 45 c0 20 00 00 00 	movl   $0x20,-0x40(%rbp)
    85c3:	c7 45 c4 20 00 00 00 	movl   $0x20,-0x3c(%rbp)
    85ca:	48 b8 01 00 00 00 01 	movabs $0x100000001,%rax
    85d1:	00 00 00 
    85d4:	48 89 45 d8          	mov    %rax,-0x28(%rbp)
    85d8:	48 8b 45 a8          	mov    -0x58(%rbp),%rax
    85dc:	48 83 c0 08          	add    $0x8,%rax
    85e0:	48 89 45 e0          	mov    %rax,-0x20(%rbp)
    85e4:	48 8b 45 e0          	mov    -0x20(%rbp),%rax
    85e8:	48 8b 10             	mov    (%rax),%rdx
    85eb:	48 b8 01 00 00 00 01 	movabs $0x100000001,%rax
    85f2:	00 00 00 
    85f5:	48 39 c2             	cmp    %rax,%rdx
    85f8:	0f 94 c0             	sete   %al
    85fb:	84 c0                	test   %al,%al
    85fd:	74 4c                	je     864b <_ZNSt16_Sp_counted_baseILN9__gnu_cxx12_Lock_policyE2EE10_M_releaseEv+0xab>
    85ff:	48 8b 45 a8          	mov    -0x58(%rbp),%rax
    8603:	c7 40 08 00 00 00 00 	movl   $0x0,0x8(%rax)
    860a:	48 8b 45 a8          	mov    -0x58(%rbp),%rax
    860e:	8b 50 08             	mov    0x8(%rax),%edx
    8611:	48 8b 45 a8          	mov    -0x58(%rbp),%rax
    8615:	89 50 0c             	mov    %edx,0xc(%rax)
    8618:	48 8b 45 a8          	mov    -0x58(%rbp),%rax
    861c:	48 8b 00             	mov    (%rax),%rax
    861f:	48 83 c0 10          	add    $0x10,%rax
    8623:	48 8b 10             	mov    (%rax),%rdx
    8626:	48 8b 45 a8          	mov    -0x58(%rbp),%rax
    862a:	48 89 c7             	mov    %rax,%rdi
    862d:	ff d2                	call   *%rdx
    862f:	48 8b 45 a8          	mov    -0x58(%rbp),%rax
    8633:	48 8b 00             	mov    (%rax),%rax
    8636:	48 83 c0 18          	add    $0x18,%rax
    863a:	48 8b 10             	mov    (%rax),%rdx
    863d:	48 8b 45 a8          	mov    -0x58(%rbp),%rax
    8641:	48 89 c7             	mov    %rax,%rdi
    8644:	ff d2                	call   *%rdx
    8646:	e9 83 00 00 00       	jmp    86ce <_ZNSt16_Sp_counted_baseILN9__gnu_cxx12_Lock_policyE2EE10_M_releaseEv+0x12e>
    864b:	48 8b 45 a8          	mov    -0x58(%rbp),%rax
    864f:	48 83 c0 08          	add    $0x8,%rax
    8653:	48 89 45 e8          	mov    %rax,-0x18(%rbp)
    8657:	c7 45 c8 ff ff ff ff 	movl   $0xffffffff,-0x38(%rbp)
    865e:	0f b6 05 db 5d 04 00 	movzbl 0x45ddb(%rip),%eax        # 4e440 <__libc_single_threaded@GLIBC_2.32>
    8665:	84 c0                	test   %al,%al
    8667:	0f 95 c0             	setne  %al
    866a:	84 c0                	test   %al,%al
    866c:	74 2d                	je     869b <_ZNSt16_Sp_counted_baseILN9__gnu_cxx12_Lock_policyE2EE10_M_releaseEv+0xfb>
    866e:	48 8b 45 e8          	mov    -0x18(%rbp),%rax
    8672:	48 89 45 f0          	mov    %rax,-0x10(%rbp)
    8676:	8b 45 c8             	mov    -0x38(%rbp),%eax
    8679:	89 45 cc             	mov    %eax,-0x34(%rbp)
    867c:	48 8b 45 f0          	mov    -0x10(%rbp),%rax
    8680:	8b 00                	mov    (%rax),%eax
    8682:	89 45 d0             	mov    %eax,-0x30(%rbp)
    8685:	48 8b 45 f0          	mov    -0x10(%rbp),%rax
    8689:	8b 10                	mov    (%rax),%edx
    868b:	8b 45 cc             	mov    -0x34(%rbp),%eax
    868e:	01 c2                	add    %eax,%edx
    8690:	48 8b 45 f0          	mov    -0x10(%rbp),%rax
    8694:	89 10                	mov    %edx,(%rax)
    8696:	8b 45 d0             	mov    -0x30(%rbp),%eax
    8699:	eb 1c                	jmp    86b7 <_ZNSt16_Sp_counted_baseILN9__gnu_cxx12_Lock_policyE2EE10_M_releaseEv+0x117>
    869b:	48 8b 45 e8          	mov    -0x18(%rbp),%rax
    869f:	48 89 45 f8          	mov    %rax,-0x8(%rbp)
    86a3:	8b 45 c8             	mov    -0x38(%rbp),%eax
    86a6:	89 45 d4             	mov    %eax,-0x2c(%rbp)
    86a9:	8b 55 d4             	mov    -0x2c(%rbp),%edx
    86ac:	48 8b 45 f8          	mov    -0x8(%rbp),%rax
    86b0:	f0 0f c1 10          	lock xadd %edx,(%rax)
    86b4:	89 d0                	mov    %edx,%eax
    86b6:	90                   	nop
    86b7:	83 f8 01             	cmp    $0x1,%eax
    86ba:	0f 94 c0             	sete   %al
    86bd:	84 c0                	test   %al,%al
    86bf:	74 0d                	je     86ce <_ZNSt16_Sp_counted_baseILN9__gnu_cxx12_Lock_policyE2EE10_M_releaseEv+0x12e>
    86c1:	48 8b 45 a8          	mov    -0x58(%rbp),%rax
    86c5:	48 89 c7             	mov    %rax,%rdi
    86c8:	e8 eb 0a 00 00       	call   91b8 <_ZNSt16_Sp_counted_baseILN9__gnu_cxx12_Lock_policyE2EE24_M_release_last_use_coldEv>
    86cd:	90                   	nop
    86ce:	c9                   	leave
    86cf:	c3                   	ret

00000000000086d0 <_ZNSt19_Sp_make_shared_tag5_S_tiEv>:
    86d0:	f3 0f 1e fa          	endbr64
    86d4:	55                   	push   %rbp
    86d5:	48 89 e5             	mov    %rsp,%rbp
    86d8:	48 8d 05 b9 eb 02 00 	lea    0x2ebb9(%rip),%rax        # 37298 <_ZZNSt19_Sp_make_shared_tag5_S_tiEvE5__tag>
    86df:	5d                   	pop    %rbp
    86e0:	c3                   	ret
    86e1:	90                   	nop

00000000000086e2 <_ZNSt9_Any_data9_M_accessEv>:
    86e2:	f3 0f 1e fa          	endbr64
    86e6:	55                   	push   %rbp
    86e7:	48 89 e5             	mov    %rsp,%rbp
    86ea:	48 89 7d f8          	mov    %rdi,-0x8(%rbp)
    86ee:	48 8b 45 f8          	mov    -0x8(%rbp),%rax
    86f2:	5d                   	pop    %rbp
    86f3:	c3                   	ret

00000000000086f4 <_ZNKSt9_Any_data9_M_accessEv>:
    86f4:	f3 0f 1e fa          	endbr64
    86f8:	55                   	push   %rbp
    86f9:	48 89 e5             	mov    %rsp,%rbp
    86fc:	48 89 7d f8          	mov    %rdi,-0x8(%rbp)
    8700:	48 8b 45 f8          	mov    -0x8(%rbp),%rax
    8704:	5d                   	pop    %rbp
    8705:	c3                   	ret

0000000000008706 <_ZNSt14_Function_baseD1Ev>:
    8706:	f3 0f 1e fa          	endbr64
    870a:	55                   	push   %rbp
    870b:	48 89 e5             	mov    %rsp,%rbp
    870e:	48 83 ec 10          	sub    $0x10,%rsp
    8712:	48 89 7d f8          	mov    %rdi,-0x8(%rbp)
    8716:	48 8b 45 f8          	mov    -0x8(%rbp),%rax
    871a:	48 8b 40 10          	mov    0x10(%rax),%rax
    871e:	48 85 c0             	test   %rax,%rax
    8721:	74 1e                	je     8741 <_ZNSt14_Function_baseD1Ev+0x3b>
    8723:	48 8b 45 f8          	mov    -0x8(%rbp),%rax
    8727:	4c 8b 40 10          	mov    0x10(%rax),%r8
    872b:	48 8b 4d f8          	mov    -0x8(%rbp),%rcx
    872f:	48 8b 45 f8          	mov    -0x8(%rbp),%rax
    8733:	ba 03 00 00 00       	mov    $0x3,%edx
    8738:	48 89 ce             	mov    %rcx,%rsi
    873b:	48 89 c7             	mov    %rax,%rdi
    873e:	41 ff d0             	call   *%r8
    8741:	90                   	nop
    8742:	c9                   	leave
    8743:	c3                   	ret

0000000000008744 <_ZNKSt14_Function_base8_M_emptyEv>:
    8744:	f3 0f 1e fa          	endbr64
    8748:	55                   	push   %rbp
    8749:	48 89 e5             	mov    %rsp,%rbp
    874c:	48 89 7d f8          	mov    %rdi,-0x8(%rbp)
    8750:	48 8b 45 f8          	mov    -0x8(%rbp),%rax
    8754:	48 8b 40 10          	mov    0x10(%rax),%rax
    8758:	48 85 c0             	test   %rax,%rax
    875b:	0f 94 c0             	sete   %al
    875e:	5d                   	pop    %rbp
    875f:	c3                   	ret

0000000000008760 <_ZNSt15regex_constantsanENS_18syntax_option_typeES0_>:
    8760:	f3 0f 1e fa          	endbr64
    8764:	55                   	push   %rbp
    8765:	48 89 e5             	mov    %rsp,%rbp
    8768:	89 7d fc             	mov    %edi,-0x4(%rbp)
    876b:	89 75 f8             	mov    %esi,-0x8(%rbp)
    876e:	8b 45 fc             	mov    -0x4(%rbp),%eax
    8771:	23 45 f8             	and    -0x8(%rbp),%eax
    8774:	5d                   	pop    %rbp
    8775:	c3                   	ret

0000000000008776 <_ZNSt15regex_constantsorENS_18syntax_option_typeES0_>:
    8776:	f3 0f 1e fa          	endbr64
    877a:	55                   	push   %rbp
    877b:	48 89 e5             	mov    %rsp,%rbp
    877e:	89 7d fc             	mov    %edi,-0x4(%rbp)
    8781:	89 75 f8             	mov    %esi,-0x8(%rbp)
    8784:	8b 45 fc             	mov    -0x4(%rbp),%eax
    8787:	0b 45 f8             	or     -0x8(%rbp),%eax
    878a:	5d                   	pop    %rbp
    878b:	c3                   	ret

000000000000878c <_ZNSt15regex_constantsanENS_15match_flag_typeES0_>:
    878c:	f3 0f 1e fa          	endbr64
    8790:	55                   	push   %rbp
    8791:	48 89 e5             	mov    %rsp,%rbp
    8794:	89 7d fc             	mov    %edi,-0x4(%rbp)
    8797:	89 75 f8             	mov    %esi,-0x8(%rbp)
    879a:	8b 45 fc             	mov    -0x4(%rbp),%eax
    879d:	23 45 f8             	and    -0x8(%rbp),%eax
    87a0:	5d                   	pop    %rbp
    87a1:	c3                   	ret

00000000000087a2 <_ZNSt15regex_constantsorENS_15match_flag_typeES0_>:
    87a2:	f3 0f 1e fa          	endbr64
    87a6:	55                   	push   %rbp
    87a7:	48 89 e5             	mov    %rsp,%rbp
    87aa:	89 7d fc             	mov    %edi,-0x4(%rbp)
    87ad:	89 75 f8             	mov    %esi,-0x8(%rbp)
    87b0:	8b 45 fc             	mov    -0x4(%rbp),%eax
    87b3:	0b 45 f8             	or     -0x8(%rbp),%eax
    87b6:	5d                   	pop    %rbp
    87b7:	c3                   	ret

00000000000087b8 <_ZNSt15regex_constantscoENS_15match_flag_typeE>:
    87b8:	f3 0f 1e fa          	endbr64
    87bc:	55                   	push   %rbp
    87bd:	48 89 e5             	mov    %rsp,%rbp
    87c0:	89 7d fc             	mov    %edi,-0x4(%rbp)
    87c3:	8b 45 fc             	mov    -0x4(%rbp),%eax
    87c6:	f7 d0                	not    %eax
    87c8:	5d                   	pop    %rbp
    87c9:	c3                   	ret

00000000000087ca <_ZNSt15regex_constantsaNERNS_15match_flag_typeES0_>:
    87ca:	f3 0f 1e fa          	endbr64
    87ce:	55                   	push   %rbp
    87cf:	48 89 e5             	mov    %rsp,%rbp
    87d2:	48 83 ec 10          	sub    $0x10,%rsp
    87d6:	48 89 7d f8          	mov    %rdi,-0x8(%rbp)
    87da:	89 75 f4             	mov    %esi,-0xc(%rbp)
    87dd:	48 8b 45 f8          	mov    -0x8(%rbp),%rax
    87e1:	8b 00                	mov    (%rax),%eax
    87e3:	8b 55 f4             	mov    -0xc(%rbp),%edx
    87e6:	89 d6                	mov    %edx,%esi
    87e8:	89 c7                	mov    %eax,%edi
    87ea:	e8 9d ff ff ff       	call   878c <_ZNSt15regex_constantsanENS_15match_flag_typeES0_>
    87ef:	48 8b 55 f8          	mov    -0x8(%rbp),%rdx
    87f3:	89 02                	mov    %eax,(%rdx)
    87f5:	48 8b 45 f8          	mov    -0x8(%rbp),%rax
    87f9:	c9                   	leave
    87fa:	c3                   	ret

00000000000087fb <_ZNSt15regex_constantsoRERNS_15match_flag_typeES0_>:
    87fb:	f3 0f 1e fa          	endbr64
    87ff:	55                   	push   %rbp
    8800:	48 89 e5             	mov    %rsp,%rbp
    8803:	48 83 ec 10          	sub    $0x10,%rsp
    8807:	48 89 7d f8          	mov    %rdi,-0x8(%rbp)
    880b:	89 75 f4             	mov    %esi,-0xc(%rbp)
    880e:	48 8b 45 f8          	mov    -0x8(%rbp),%rax
    8812:	8b 00                	mov    (%rax),%eax
    8814:	8b 55 f4             	mov    -0xc(%rbp),%edx
    8817:	89 d6                	mov    %edx,%esi
    8819:	89 c7                	mov    %eax,%edi
    881b:	e8 82 ff ff ff       	call   87a2 <_ZNSt15regex_constantsorENS_15match_flag_typeES0_>
    8820:	48 8b 55 f8          	mov    -0x8(%rbp),%rdx
    8824:	89 02                	mov    %eax,(%rdx)
    8826:	48 8b 45 f8          	mov    -0x8(%rbp),%rax
    882a:	c9                   	leave
    882b:	c3                   	ret

000000000000882c <_ZNSt11regex_errorC1ENSt15regex_constants10error_typeEPKc>:
    882c:	f3 0f 1e fa          	endbr64
    8830:	55                   	push   %rbp
    8831:	48 89 e5             	mov    %rsp,%rbp
    8834:	48 83 ec 20          	sub    $0x20,%rsp
    8838:	48 89 7d f8          	mov    %rdi,-0x8(%rbp)
    883c:	89 75 f4             	mov    %esi,-0xc(%rbp)
    883f:	48 89 55 e8          	mov    %rdx,-0x18(%rbp)
    8843:	48 8b 45 f8          	mov    -0x8(%rbp),%rax
    8847:	48 8b 55 e8          	mov    -0x18(%rbp),%rdx
    884b:	48 89 d6             	mov    %rdx,%rsi
    884e:	48 89 c7             	mov    %rax,%rdi
    8851:	e8 aa d5 ff ff       	call   5e00 <_ZNSt13runtime_errorC2EPKc@plt>
    8856:	48 8d 15 b3 4f 04 00 	lea    0x44fb3(%rip),%rdx        # 4d810 <_ZTVSt11regex_error@GLIBCXX_3.4.15+0x10>
    885d:	48 8b 45 f8          	mov    -0x8(%rbp),%rax
    8861:	48 89 10             	mov    %rdx,(%rax)
    8864:	48 8b 45 f8          	mov    -0x8(%rbp),%rax
    8868:	8b 55 f4             	mov    -0xc(%rbp),%edx
    886b:	89 50 10             	mov    %edx,0x10(%rax)
    886e:	90                   	nop
    886f:	c9                   	leave
    8870:	c3                   	ret

0000000000008871 <_ZSt19__throw_regex_errorNSt15regex_constants10error_typeEPKc>:
    8871:	f3 0f 1e fa          	endbr64
    8875:	55                   	push   %rbp
    8876:	48 89 e5             	mov    %rsp,%rbp
    8879:	41 54                	push   %r12
    887b:	53                   	push   %rbx
    887c:	48 83 ec 10          	sub    $0x10,%rsp
    8880:	89 7d ec             	mov    %edi,-0x14(%rbp)
    8883:	48 89 75 e0          	mov    %rsi,-0x20(%rbp)
    8887:	bf 18 00 00 00       	mov    $0x18,%edi
    888c:	e8 5f d0 ff ff       	call   58f0 <__cxa_allocate_exception@plt>
    8891:	48 89 c3             	mov    %rax,%rbx
    8894:	48 8b 55 e0          	mov    -0x20(%rbp),%rdx
    8898:	8b 45 ec             	mov    -0x14(%rbp),%eax
    889b:	89 c6                	mov    %eax,%esi
    889d:	48 89 df             	mov    %rbx,%rdi
    88a0:	e8 87 ff ff ff       	call   882c <_ZNSt11regex_errorC1ENSt15regex_constants10error_typeEPKc>
    88a5:	48 8b 05 2c 57 04 00 	mov    0x4572c(%rip),%rax        # 4dfd8 <_ZNSt11regex_errorD1Ev@GLIBCXX_3.4.15>
    88ac:	48 89 c2             	mov    %rax,%rdx
    88af:	48 8d 05 c2 4f 04 00 	lea    0x44fc2(%rip),%rax        # 4d878 <_ZTISt11regex_error@GLIBCXX_3.4.15>
    88b6:	48 89 c6             	mov    %rax,%rsi
    88b9:	48 89 df             	mov    %rbx,%rdi
    88bc:	e8 9f d4 ff ff       	call   5d60 <__cxa_throw@plt>
    88c1:	f3 0f 1e fa          	endbr64
    88c5:	49 89 c4             	mov    %rax,%r12
    88c8:	48 89 df             	mov    %rbx,%rdi
    88cb:	e8 50 d1 ff ff       	call   5a20 <__cxa_free_exception@plt>
    88d0:	4c 89 e0             	mov    %r12,%rax
    88d3:	48 89 c7             	mov    %rax,%rdi
    88d6:	e8 e5 d4 ff ff       	call   5dc0 <_Unwind_Resume@plt>
    88db:	90                   	nop

00000000000088dc <_ZNSt8__detail11_State_baseC1ENS_7_OpcodeE>:
    88dc:	f3 0f 1e fa          	endbr64
    88e0:	55                   	push   %rbp
    88e1:	48 89 e5             	mov    %rsp,%rbp
    88e4:	48 89 7d f8          	mov    %rdi,-0x8(%rbp)
    88e8:	89 75 f4             	mov    %esi,-0xc(%rbp)
    88eb:	48 8b 45 f8          	mov    -0x8(%rbp),%rax
    88ef:	8b 55 f4             	mov    -0xc(%rbp),%edx
    88f2:	89 10                	mov    %edx,(%rax)
    88f4:	48 8b 45 f8          	mov    -0x8(%rbp),%rax
    88f8:	48 c7 40 08 ff ff ff 	movq   $0xffffffffffffffff,0x8(%rax)
    88ff:	ff 
    8900:	90                   	nop
    8901:	5d                   	pop    %rbp
    8902:	c3                   	ret
    8903:	90                   	nop

0000000000008904 <_ZNKSt8__detail11_State_base10_M_has_altEv>:
    8904:	f3 0f 1e fa          	endbr64
    8908:	55                   	push   %rbp
    8909:	48 89 e5             	mov    %rsp,%rbp
    890c:	48 89 7d f8          	mov    %rdi,-0x8(%rbp)
    8910:	48 8b 45 f8          	mov    -0x8(%rbp),%rax
    8914:	8b 00                	mov    (%rax),%eax
    8916:	83 f8 01             	cmp    $0x1,%eax
    8919:	74 16                	je     8931 <_ZNKSt8__detail11_State_base10_M_has_altEv+0x2d>
    891b:	48 8b 45 f8          	mov    -0x8(%rbp),%rax
    891f:	8b 00                	mov    (%rax),%eax
    8921:	83 f8 02             	cmp    $0x2,%eax
    8924:	74 0b                	je     8931 <_ZNKSt8__detail11_State_base10_M_has_altEv+0x2d>
    8926:	48 8b 45 f8          	mov    -0x8(%rbp),%rax
    892a:	8b 00                	mov    (%rax),%eax
    892c:	83 f8 07             	cmp    $0x7,%eax
    892f:	75 07                	jne    8938 <_ZNKSt8__detail11_State_base10_M_has_altEv+0x34>
    8931:	b8 01 00 00 00       	mov    $0x1,%eax
    8936:	eb 05                	jmp    893d <_ZNKSt8__detail11_State_base10_M_has_altEv+0x39>
    8938:	b8 00 00 00 00       	mov    $0x0,%eax
    893d:	5d                   	pop    %rbp
    893e:	c3                   	ret
    893f:	90                   	nop

0000000000008940 <_ZNSt12_Vector_baseImSaImEE12_Vector_implD1Ev>:
    8940:	f3 0f 1e fa          	endbr64
    8944:	55                   	push   %rbp
    8945:	48 89 e5             	mov    %rsp,%rbp
    8948:	48 83 ec 20          	sub    $0x20,%rsp
    894c:	48 89 7d e8          	mov    %rdi,-0x18(%rbp)
    8950:	48 8b 45 e8          	mov    -0x18(%rbp),%rax
    8954:	48 89 45 f8          	mov    %rax,-0x8(%rbp)
    8958:	48 8b 45 f8          	mov    -0x8(%rbp),%rax
    895c:	48 89 c7             	mov    %rax,%rdi
    895f:	e8 72 13 00 00       	call   9cd6 <_ZNSt15__new_allocatorImED1Ev>
    8964:	90                   	nop
    8965:	90                   	nop
    8966:	c9                   	leave
    8967:	c3                   	ret

0000000000008968 <_ZNSt12_Vector_baseImSaImEEC1Ev>:
    8968:	f3 0f 1e fa          	endbr64
    896c:	55                   	push   %rbp
    896d:	48 89 e5             	mov    %rsp,%rbp
    8970:	48 83 ec 10          	sub    $0x10,%rsp
    8974:	48 89 7d f8          	mov    %rdi,-0x8(%rbp)
    8978:	48 8b 45 f8          	mov    -0x8(%rbp),%rax
    897c:	48 89 c7             	mov    %rax,%rdi
    897f:	e8 54 08 00 00       	call   91d8 <_ZNSt12_Vector_baseImSaImEE12_Vector_implC1Ev>
    8984:	90                   	nop
    8985:	c9                   	leave
    8986:	c3                   	ret
    8987:	90                   	nop

0000000000008988 <_ZNSt6vectorImSaImEEC1Ev>:
    8988:	f3 0f 1e fa          	endbr64
    898c:	55                   	push   %rbp
    898d:	48 89 e5             	mov    %rsp,%rbp
    8990:	48 83 ec 10          	sub    $0x10,%rsp
    8994:	48 89 7d f8          	mov    %rdi,-0x8(%rbp)
    8998:	48 8b 45 f8          	mov    -0x8(%rbp),%rax
    899c:	48 89 c7             	mov    %rax,%rdi
    899f:	e8 c4 ff ff ff       	call   8968 <_ZNSt12_Vector_baseImSaImEEC1Ev>
    89a4:	90                   	nop
    89a5:	c9                   	leave
    89a6:	c3                   	ret
    89a7:	90                   	nop

00000000000089a8 <_ZNSt8__detail9_NFA_baseC1ENSt15regex_constants18syntax_option_typeE>:
    89a8:	f3 0f 1e fa          	endbr64
    89ac:	55                   	push   %rbp
    89ad:	48 89 e5             	mov    %rsp,%rbp
    89b0:	48 83 ec 10          	sub    $0x10,%rsp
    89b4:	48 89 7d f8          	mov    %rdi,-0x8(%rbp)
    89b8:	89 75 f4             	mov    %esi,-0xc(%rbp)
    89bb:	48 8b 45 f8          	mov    -0x8(%rbp),%rax
    89bf:	48 89 c7             	mov    %rax,%rdi
    89c2:	e8 c1 ff ff ff       	call   8988 <_ZNSt6vectorImSaImEEC1Ev>
    89c7:	48 8b 45 f8          	mov    -0x8(%rbp),%rax
    89cb:	8b 55 f4             	mov    -0xc(%rbp),%edx
    89ce:	89 50 18             	mov    %edx,0x18(%rax)
    89d1:	48 8b 45 f8          	mov    -0x8(%rbp),%rax
    89d5:	48 c7 40 20 00 00 00 	movq   $0x0,0x20(%rax)
    89dc:	00 
    89dd:	48 8b 45 f8          	mov    -0x8(%rbp),%rax
    89e1:	48 c7 40 28 00 00 00 	movq   $0x0,0x28(%rax)
    89e8:	00 
    89e9:	48 8b 45 f8          	mov    -0x8(%rbp),%rax
    89ed:	c6 40 30 00          	movb   $0x0,0x30(%rax)
    89f1:	90                   	nop
    89f2:	c9                   	leave
    89f3:	c3                   	ret

00000000000089f4 <_ZNKSt8__detail9_NFA_base10_M_optionsEv>:
    89f4:	f3 0f 1e fa          	endbr64
    89f8:	55                   	push   %rbp
    89f9:	48 89 e5             	mov    %rsp,%rbp
    89fc:	48 89 7d f8          	mov    %rdi,-0x8(%rbp)
    8a00:	48 8b 45 f8          	mov    -0x8(%rbp),%rax
    8a04:	8b 40 18             	mov    0x18(%rax),%eax
    8a07:	5d                   	pop    %rbp
    8a08:	c3                   	ret
    8a09:	90                   	nop

0000000000008a0a <_ZNKSt8__detail9_NFA_base8_M_startEv>:
    8a0a:	f3 0f 1e fa          	endbr64
    8a0e:	55                   	push   %rbp
    8a0f:	48 89 e5             	mov    %rsp,%rbp
    8a12:	48 89 7d f8          	mov    %rdi,-0x8(%rbp)
    8a16:	48 8b 45 f8          	mov    -0x8(%rbp),%rax
    8a1a:	48 8b 40 20          	mov    0x20(%rax),%rax
    8a1e:	5d                   	pop    %rbp
    8a1f:	c3                   	ret

0000000000008a20 <_ZNKSt8__detail9_NFA_base12_M_sub_countEv>:
    8a20:	f3 0f 1e fa          	endbr64
    8a24:	55                   	push   %rbp
    8a25:	48 89 e5             	mov    %rsp,%rbp
    8a28:	48 89 7d f8          	mov    %rdi,-0x8(%rbp)
    8a2c:	48 8b 45 f8          	mov    -0x8(%rbp),%rax
    8a30:	48 8b 40 28          	mov    0x28(%rax),%rax
    8a34:	5d                   	pop    %rbp
    8a35:	c3                   	ret

0000000000008a36 <_ZSt7forwardIcEOT_RNSt16remove_referenceIS0_E4typeE>:
    8a36:	f3 0f 1e fa          	endbr64
    8a3a:	55                   	push   %rbp
    8a3b:	48 89 e5             	mov    %rsp,%rbp
    8a3e:	48 89 7d f8          	mov    %rdi,-0x8(%rbp)
    8a42:	48 8b 45 f8          	mov    -0x8(%rbp),%rax
    8a46:	5d                   	pop    %rbp
    8a47:	c3                   	ret

0000000000008a48 <_ZNSt4pairIccEC1IccLb1EEEOT_OT0_>:
    8a48:	f3 0f 1e fa          	endbr64
    8a4c:	55                   	push   %rbp
    8a4d:	48 89 e5             	mov    %rsp,%rbp
    8a50:	48 83 ec 20          	sub    $0x20,%rsp
    8a54:	48 89 7d f8          	mov    %rdi,-0x8(%rbp)
    8a58:	48 89 75 f0          	mov    %rsi,-0x10(%rbp)
    8a5c:	48 89 55 e8          	mov    %rdx,-0x18(%rbp)
    8a60:	48 8b 45 f0          	mov    -0x10(%rbp),%rax
    8a64:	48 89 c7             	mov    %rax,%rdi
    8a67:	e8 ca ff ff ff       	call   8a36 <_ZSt7forwardIcEOT_RNSt16remove_referenceIS0_E4typeE>
    8a6c:	0f b6 10             	movzbl (%rax),%edx
    8a6f:	48 8b 45 f8          	mov    -0x8(%rbp),%rax
    8a73:	88 10                	mov    %dl,(%rax)
    8a75:	48 8b 45 e8          	mov    -0x18(%rbp),%rax
    8a79:	48 89 c7             	mov    %rax,%rdi
    8a7c:	e8 b5 ff ff ff       	call   8a36 <_ZSt7forwardIcEOT_RNSt16remove_referenceIS0_E4typeE>
    8a81:	0f b6 10             	movzbl (%rax),%edx
    8a84:	48 8b 45 f8          	mov    -0x8(%rbp),%rax
    8a88:	88 50 01             	mov    %dl,0x1(%rax)
    8a8b:	90                   	nop
    8a8c:	c9                   	leave
    8a8d:	c3                   	ret

0000000000008a8e <_ZNSt8__detail12_ScannerBaseC1ENSt15regex_constants18syntax_option_typeE>:
    8a8e:	f3 0f 1e fa          	endbr64
    8a92:	55                   	push   %rbp
    8a93:	48 89 e5             	mov    %rsp,%rbp
    8a96:	48 83 ec 10          	sub    $0x10,%rsp
    8a9a:	48 89 7d f8          	mov    %rdi,-0x8(%rbp)
    8a9e:	89 75 f4             	mov    %esi,-0xc(%rbp)
    8aa1:	48 8b 45 f8          	mov    -0x8(%rbp),%rax
    8aa5:	66 0f ef c0          	pxor   %xmm0,%xmm0
    8aa9:	0f 11 00             	movups %xmm0,(%rax)
    8aac:	0f 11 40 10          	movups %xmm0,0x10(%rax)
    8ab0:	0f 11 40 20          	movups %xmm0,0x20(%rax)
    8ab4:	0f 11 40 30          	movups %xmm0,0x30(%rax)
    8ab8:	66 0f d6 40 40       	movq   %xmm0,0x40(%rax)
    8abd:	48 8b 45 f8          	mov    -0x8(%rbp),%rax
    8ac1:	c6 00 5e             	movb   $0x5e,(%rax)
    8ac4:	48 8b 45 f8          	mov    -0x8(%rbp),%rax
    8ac8:	c7 40 04 16 00 00 00 	movl   $0x16,0x4(%rax)
    8acf:	48 8b 45 f8          	mov    -0x8(%rbp),%rax
    8ad3:	c6 40 08 24          	movb   $0x24,0x8(%rax)
    8ad7:	48 8b 45 f8          	mov    -0x8(%rbp),%rax
    8adb:	c7 40 0c 17 00 00 00 	movl   $0x17,0xc(%rax)
    8ae2:	48 8b 45 f8          	mov    -0x8(%rbp),%rax
    8ae6:	c6 40 10 2e          	movb   $0x2e,0x10(%rax)
    8aea:	48 8b 45 f8          	mov    -0x8(%rbp),%rax
    8aee:	c6 40 18 2a          	movb   $0x2a,0x18(%rax)
    8af2:	48 8b 45 f8          	mov    -0x8(%rbp),%rax
    8af6:	c7 40 1c 14 00 00 00 	movl   $0x14,0x1c(%rax)
    8afd:	48 8b 45 f8          	mov    -0x8(%rbp),%rax
    8b01:	c6 40 20 2b          	movb   $0x2b,0x20(%rax)
    8b05:	48 8b 45 f8          	mov    -0x8(%rbp),%rax
    8b09:	c7 40 24 15 00 00 00 	movl   $0x15,0x24(%rax)
    8b10:	48 8b 45 f8          	mov    -0x8(%rbp),%rax
    8b14:	c6 40 28 3f          	movb   $0x3f,0x28(%rax)
    8b18:	48 8b 45 f8          	mov    -0x8(%rbp),%rax
    8b1c:	c7 40 2c 12 00 00 00 	movl   $0x12,0x2c(%rax)
    8b23:	48 8b 45 f8          	mov    -0x8(%rbp),%rax
    8b27:	c6 40 30 7c          	movb   $0x7c,0x30(%rax)
    8b2b:	48 8b 45 f8          	mov    -0x8(%rbp),%rax
    8b2f:	c7 40 34 13 00 00 00 	movl   $0x13,0x34(%rax)
    8b36:	48 8b 45 f8          	mov    -0x8(%rbp),%rax
    8b3a:	c6 40 38 0a          	movb   $0xa,0x38(%rax)
    8b3e:	48 8b 45 f8          	mov    -0x8(%rbp),%rax
    8b42:	c7 40 3c 13 00 00 00 	movl   $0x13,0x3c(%rax)
    8b49:	48 8b 45 f8          	mov    -0x8(%rbp),%rax
    8b4d:	c7 40 44 13 00 00 00 	movl   $0x13,0x44(%rax)
    8b54:	48 8b 45 f8          	mov    -0x8(%rbp),%rax
    8b58:	48 c7 40 48 00 00 00 	movq   $0x0,0x48(%rax)
    8b5f:	00 
    8b60:	48 c7 40 50 00 00 00 	movq   $0x0,0x50(%rax)
    8b67:	00 
